

Microchip MPLAB XC8 Assembler V3.00 build 20241204225717 
                                                                                               Mon Sep 22 22:55:21 2025

Microchip MPLAB XC8 C Compiler v3.00 (Free license) build 20241204225717 Og1 
     1                           	processor	18F4580
     2                           	fnconf	rparam,??,?,0
     3                           	pagewidth 120
     4                           	opt	flic
     5                           	psect	mediumconst,global,reloc=2,class=MEDIUMCONST,space=0,delta=1,noexec
     6                           	psect	cinit,global,reloc=2,class=CODE,space=0,delta=1
     7                           	psect	bssCOMRAM,global,class=COMRAM,space=1,delta=1,lowdata,noexec
     8                           	psect	cstackCOMRAM,global,class=COMRAM,space=1,delta=1,lowdata,noexec
     9                           	psect	text0,global,reloc=2,class=CODE,space=0,delta=1
    10                           	psect	text1,global,reloc=2,class=CODE,space=0,delta=1
    11                           	psect	text2,global,reloc=2,class=CODE,space=0,delta=1
    12                           	psect	text3,global,reloc=2,class=CODE,space=0,delta=1
    13                           	psect	text4,global,reloc=2,class=CODE,space=0,delta=1
    14                           	psect	text5,global,reloc=2,class=CODE,space=0,delta=1
    15                           	psect	text6,global,reloc=2,class=CODE,space=0,delta=1
    16                           	psect	text7,global,reloc=2,class=CODE,space=0,delta=1
    17                           	psect	text8,global,reloc=2,class=CODE,space=0,delta=1
    18                           	psect	text9,global,reloc=2,class=CODE,space=0,delta=1
    19                           	psect	text10,global,reloc=2,class=CODE,space=0,delta=1
    20                           	psect	text11,global,reloc=2,class=CODE,space=0,delta=1
    21                           	psect	text12,global,reloc=2,class=CODE,space=0,delta=1
    22                           	psect	text13,global,reloc=2,class=CODE,space=0,delta=1
    23                           	psect	intsave_regs,global,class=BIGRAM,space=1,delta=1,noexec
    24                           	psect	rparam,global,class=COMRAM,space=1,delta=1,noexec
    25                           	psect	idloc,global,abs,ovrld,class=IDLOC,space=5,delta=1,noexec
    26                           	psect	config,global,abs,ovrld,class=CONFIG,space=4,delta=1,noexec
    27   000000                     
    28                           ; Version 2.20
    29                           ; Generated 12/02/2020 GMT
    30                           ; 
    31                           ; Copyright © 2020, Microchip Technology Inc. and its subsidiaries ("Microchip")
    32                           ; All rights reserved.
    33                           ; 
    34                           ; This software is developed by Microchip Technology Inc. and its subsidiaries ("Microch
      +                          ip").
    35                           ; 
    36                           ; Redistribution and use in source and binary forms, with or without modification, are
    37                           ; permitted provided that the following conditions are met:
    38                           ; 
    39                           ;     1. Redistributions of source code must retain the above copyright notice, this lis
      +                          t of
    40                           ;        conditions and the following disclaimer.
    41                           ; 
    42                           ;     2. Redistributions in binary form must reproduce the above copyright notice, this 
      +                          list
    43                           ;        of conditions and the following disclaimer in the documentation and/or other
    44                           ;        materials provided with the distribution.
    45                           ; 
    46                           ;     3. Microchip's name may not be used to endorse or promote products derived from th
      +                          is
    47                           ;        software without specific prior written permission.
    48                           ; 
    49                           ; THIS SOFTWARE IS PROVIDED BY MICROCHIP "AS IS" AND ANY EXPRESS OR IMPLIED WARRANTIES,
    50                           ; INCLUDING, BUT NOT LIMITED TO, THE IMPLIED WARRANTIES OF MERCHANTABILITY AND FITNESS F
      +                          OR
    51                           ; PURPOSE ARE DISCLAIMED.  IN NO EVENT SHALL MICROCHIP BE LIABLE FOR ANY DIRECT, INDIREC
      +                          T,
    52                           ; INCIDENTAL, SPECIAL, EXEMPLARY, OR CONSEQUENTIAL DAMAGES (INCLUDING BUT NOT LIMITED TO
    53                           ; PROCUREMENT OF SUBSTITUTE GOODS OR SERVICES; LOSS OF USE, DATA OR PROFITS; OR BUSINESS
    54                           ; INTERRUPTION) HOWSOEVER CAUSED AND ON ANY THEORY OF LIABILITY, WHETHER IN CONTRACT, ST
      +                          RICT
    55                           ; LIABILITY, OR TORT (INCLUDING NEGLIGENCE OR OTHERWISE) ARISING IN ANY WAY OUT OF THE U
      +                          SE OF
    56                           ; THIS SOFTWARE, EVEN IF ADVISED OF THE POSSIBILITY OF SUCH DAMAGE.
    57                           ; 
    58                           ; 
    59                           ; Code-generator required, PIC18F4580 Definitions
    60                           ; 
    61                           ; SFR Addresses
    62   000FE0                     bsr             equ	4064
    63   000FE9                     fsr0            equ	4073
    64   000FEA                     fsr0h           equ	4074
    65   000FE9                     fsr0l           equ	4073
    66   000FE1                     fsr1            equ	4065
    67   000FE2                     fsr1h           equ	4066
    68   000FE1                     fsr1l           equ	4065
    69   000FD9                     fsr2            equ	4057
    70   000FDA                     fsr2h           equ	4058
    71   000FD9                     fsr2l           equ	4057
    72   000FEF                     indf0           equ	4079
    73   000FE7                     indf1           equ	4071
    74   000FDF                     indf2           equ	4063
    75   000FF2                     intcon          equ	4082
    76   000000                     nvmcon          equ	0
    77   000FF9                     pcl             equ	4089
    78   000FFA                     pclath          equ	4090
    79   000FFB                     pclatu          equ	4091
    80   000FEB                     plusw0          equ	4075
    81   000FE3                     plusw1          equ	4067
    82   000FDB                     plusw2          equ	4059
    83   000FED                     postdec0        equ	4077
    84   000FE5                     postdec1        equ	4069
    85   000FDD                     postdec2        equ	4061
    86   000FEE                     postinc0        equ	4078
    87   000FE6                     postinc1        equ	4070
    88   000FDE                     postinc2        equ	4062
    89   000FEC                     preinc0         equ	4076
    90   000FE4                     preinc1         equ	4068
    91   000FDC                     preinc2         equ	4060
    92   000FF3                     prod            equ	4083
    93   000FF4                     prodh           equ	4084
    94   000FF3                     prodl           equ	4083
    95   000FD8                     status          equ	4056
    96   000FF5                     tablat          equ	4085
    97   000FF6                     tblptr          equ	4086
    98   000FF7                     tblptrh         equ	4087
    99   000FF6                     tblptrl         equ	4086
   100   000FF8                     tblptru         equ	4088
   101   000FFD                     tosl            equ	4093
   102   000FE8                     wreg            equ	4072
   103   000D60                     RXF6SIDH        equ	3424	;# 
   104   000D61                     RXF6SIDL        equ	3425	;# 
   105   000D62                     RXF6EIDH        equ	3426	;# 
   106   000D63                     RXF6EIDL        equ	3427	;# 
   107   000D64                     RXF7SIDH        equ	3428	;# 
   108   000D65                     RXF7SIDL        equ	3429	;# 
   109   000D66                     RXF7EIDH        equ	3430	;# 
   110   000D67                     RXF7EIDL        equ	3431	;# 
   111   000D68                     RXF8SIDH        equ	3432	;# 
   112   000D69                     RXF8SIDL        equ	3433	;# 
   113   000D6A                     RXF8EIDH        equ	3434	;# 
   114   000D6B                     RXF8EIDL        equ	3435	;# 
   115   000D70                     RXF9SIDH        equ	3440	;# 
   116   000D71                     RXF9SIDL        equ	3441	;# 
   117   000D72                     RXF9EIDH        equ	3442	;# 
   118   000D73                     RXF9EIDL        equ	3443	;# 
   119   000D74                     RXF10SIDH       equ	3444	;# 
   120   000D75                     RXF10SIDL       equ	3445	;# 
   121   000D76                     RXF10EIDH       equ	3446	;# 
   122   000D77                     RXF10EIDL       equ	3447	;# 
   123   000D78                     RXF11SIDH       equ	3448	;# 
   124   000D79                     RXF11SIDL       equ	3449	;# 
   125   000D7A                     RXF11EIDH       equ	3450	;# 
   126   000D7B                     RXF11EIDL       equ	3451	;# 
   127   000D80                     RXF12SIDH       equ	3456	;# 
   128   000D81                     RXF12SIDL       equ	3457	;# 
   129   000D82                     RXF12EIDH       equ	3458	;# 
   130   000D83                     RXF12EIDL       equ	3459	;# 
   131   000D84                     RXF13SIDH       equ	3460	;# 
   132   000D85                     RXF13SIDL       equ	3461	;# 
   133   000D86                     RXF13EIDH       equ	3462	;# 
   134   000D87                     RXF13EIDL       equ	3463	;# 
   135   000D88                     RXF14SIDH       equ	3464	;# 
   136   000D89                     RXF14SIDL       equ	3465	;# 
   137   000D8A                     RXF14EIDH       equ	3466	;# 
   138   000D8B                     RXF14EIDL       equ	3467	;# 
   139   000D90                     RXF15SIDH       equ	3472	;# 
   140   000D91                     RXF15SIDL       equ	3473	;# 
   141   000D92                     RXF15EIDH       equ	3474	;# 
   142   000D93                     RXF15EIDL       equ	3475	;# 
   143   000DD4                     RXFCON0         equ	3540	;# 
   144   000DD5                     RXFCON1         equ	3541	;# 
   145   000DD8                     SDFLC           equ	3544	;# 
   146   000DE0                     RXFBCON0        equ	3552	;# 
   147   000DE1                     RXFBCON1        equ	3553	;# 
   148   000DE2                     RXFBCON2        equ	3554	;# 
   149   000DE3                     RXFBCON3        equ	3555	;# 
   150   000DE4                     RXFBCON4        equ	3556	;# 
   151   000DE5                     RXFBCON5        equ	3557	;# 
   152   000DE6                     RXFBCON6        equ	3558	;# 
   153   000DE7                     RXFBCON7        equ	3559	;# 
   154   000DF0                     MSEL0           equ	3568	;# 
   155   000DF1                     MSEL1           equ	3569	;# 
   156   000DF2                     MSEL2           equ	3570	;# 
   157   000DF3                     MSEL3           equ	3571	;# 
   158   000DF8                     BSEL0           equ	3576	;# 
   159   000DFA                     BIE0            equ	3578	;# 
   160   000DFC                     TXBIE           equ	3580	;# 
   161   000E20                     B0CON           equ	3616	;# 
   162   000E21                     B0SIDH          equ	3617	;# 
   163   000E22                     B0SIDL          equ	3618	;# 
   164   000E23                     B0EIDH          equ	3619	;# 
   165   000E24                     B0EIDL          equ	3620	;# 
   166   000E25                     B0DLC           equ	3621	;# 
   167   000E26                     B0D0            equ	3622	;# 
   168   000E27                     B0D1            equ	3623	;# 
   169   000E28                     B0D2            equ	3624	;# 
   170   000E29                     B0D3            equ	3625	;# 
   171   000E2A                     B0D4            equ	3626	;# 
   172   000E2B                     B0D5            equ	3627	;# 
   173   000E2C                     B0D6            equ	3628	;# 
   174   000E2D                     B0D7            equ	3629	;# 
   175   000E2E                     CANSTAT_RO9     equ	3630	;# 
   176   000E2F                     CANCON_RO9      equ	3631	;# 
   177   000E30                     B1CON           equ	3632	;# 
   178   000E31                     B1SIDH          equ	3633	;# 
   179   000E32                     B1SIDL          equ	3634	;# 
   180   000E33                     B1EIDH          equ	3635	;# 
   181   000E34                     B1EIDL          equ	3636	;# 
   182   000E35                     B1DLC           equ	3637	;# 
   183   000E36                     B1D0            equ	3638	;# 
   184   000E37                     B1D1            equ	3639	;# 
   185   000E38                     B1D2            equ	3640	;# 
   186   000E39                     B1D3            equ	3641	;# 
   187   000E3A                     B1D4            equ	3642	;# 
   188   000E3B                     B1D5            equ	3643	;# 
   189   000E3C                     B1D6            equ	3644	;# 
   190   000E3D                     B1D7            equ	3645	;# 
   191   000E3E                     CANSTAT_RO8     equ	3646	;# 
   192   000E3F                     CANCON_RO8      equ	3647	;# 
   193   000E40                     B2CON           equ	3648	;# 
   194   000E41                     B2SIDH          equ	3649	;# 
   195   000E42                     B2SIDL          equ	3650	;# 
   196   000E43                     B2EIDH          equ	3651	;# 
   197   000E44                     B2EIDL          equ	3652	;# 
   198   000E45                     B2DLC           equ	3653	;# 
   199   000E46                     B2D0            equ	3654	;# 
   200   000E47                     B2D1            equ	3655	;# 
   201   000E48                     B2D2            equ	3656	;# 
   202   000E49                     B2D3            equ	3657	;# 
   203   000E4A                     B2D4            equ	3658	;# 
   204   000E4B                     B2D5            equ	3659	;# 
   205   000E4C                     B2D6            equ	3660	;# 
   206   000E4D                     B2D7            equ	3661	;# 
   207   000E4E                     CANSTAT_RO7     equ	3662	;# 
   208   000E4F                     CANCON_RO7      equ	3663	;# 
   209   000E50                     B3CON           equ	3664	;# 
   210   000E51                     B3SIDH          equ	3665	;# 
   211   000E52                     B3SIDL          equ	3666	;# 
   212   000E53                     B3EIDH          equ	3667	;# 
   213   000E54                     B3EIDL          equ	3668	;# 
   214   000E55                     B3DLC           equ	3669	;# 
   215   000E56                     B3D0            equ	3670	;# 
   216   000E57                     B3D1            equ	3671	;# 
   217   000E58                     B3D2            equ	3672	;# 
   218   000E59                     B3D3            equ	3673	;# 
   219   000E5A                     B3D4            equ	3674	;# 
   220   000E5B                     B3D5            equ	3675	;# 
   221   000E5C                     B3D6            equ	3676	;# 
   222   000E5D                     B3D7            equ	3677	;# 
   223   000E5E                     CANSTAT_RO6     equ	3678	;# 
   224   000E5F                     CANCON_RO6      equ	3679	;# 
   225   000E60                     B4CON           equ	3680	;# 
   226   000E61                     B4SIDH          equ	3681	;# 
   227   000E62                     B4SIDL          equ	3682	;# 
   228   000E63                     B4EIDH          equ	3683	;# 
   229   000E64                     B4EIDL          equ	3684	;# 
   230   000E65                     B4DLC           equ	3685	;# 
   231   000E66                     B4D0            equ	3686	;# 
   232   000E67                     B4D1            equ	3687	;# 
   233   000E68                     B4D2            equ	3688	;# 
   234   000E69                     B4D3            equ	3689	;# 
   235   000E6A                     B4D4            equ	3690	;# 
   236   000E6B                     B4D5            equ	3691	;# 
   237   000E6C                     B4D6            equ	3692	;# 
   238   000E6D                     B4D7            equ	3693	;# 
   239   000E6E                     CANSTAT_RO5     equ	3694	;# 
   240   000E6F                     CANCON_RO5      equ	3695	;# 
   241   000E70                     B5CON           equ	3696	;# 
   242   000E71                     B5SIDH          equ	3697	;# 
   243   000E72                     B5SIDL          equ	3698	;# 
   244   000E73                     B5EIDH          equ	3699	;# 
   245   000E74                     B5EIDL          equ	3700	;# 
   246   000E75                     B5DLC           equ	3701	;# 
   247   000E76                     B5D0            equ	3702	;# 
   248   000E77                     B5D1            equ	3703	;# 
   249   000E78                     B5D2            equ	3704	;# 
   250   000E79                     B5D3            equ	3705	;# 
   251   000E7A                     B5D4            equ	3706	;# 
   252   000E7B                     B5D5            equ	3707	;# 
   253   000E7C                     B5D6            equ	3708	;# 
   254   000E7D                     B5D7            equ	3709	;# 
   255   000E7E                     CANSTAT_RO4     equ	3710	;# 
   256   000E7F                     CANCON_RO4      equ	3711	;# 
   257   000F00                     RXF0SIDH        equ	3840	;# 
   258   000F01                     RXF0SIDL        equ	3841	;# 
   259   000F02                     RXF0EIDH        equ	3842	;# 
   260   000F03                     RXF0EIDL        equ	3843	;# 
   261   000F04                     RXF1SIDH        equ	3844	;# 
   262   000F05                     RXF1SIDL        equ	3845	;# 
   263   000F06                     RXF1EIDH        equ	3846	;# 
   264   000F07                     RXF1EIDL        equ	3847	;# 
   265   000F08                     RXF2SIDH        equ	3848	;# 
   266   000F09                     RXF2SIDL        equ	3849	;# 
   267   000F0A                     RXF2EIDH        equ	3850	;# 
   268   000F0B                     RXF2EIDL        equ	3851	;# 
   269   000F0C                     RXF3SIDH        equ	3852	;# 
   270   000F0D                     RXF3SIDL        equ	3853	;# 
   271   000F0E                     RXF3EIDH        equ	3854	;# 
   272   000F0F                     RXF3EIDL        equ	3855	;# 
   273   000F10                     RXF4SIDH        equ	3856	;# 
   274   000F11                     RXF4SIDL        equ	3857	;# 
   275   000F12                     RXF4EIDH        equ	3858	;# 
   276   000F13                     RXF4EIDL        equ	3859	;# 
   277   000F14                     RXF5SIDH        equ	3860	;# 
   278   000F15                     RXF5SIDL        equ	3861	;# 
   279   000F16                     RXF5EIDH        equ	3862	;# 
   280   000F17                     RXF5EIDL        equ	3863	;# 
   281   000F18                     RXM0SIDH        equ	3864	;# 
   282   000F19                     RXM0SIDL        equ	3865	;# 
   283   000F1A                     RXM0EIDH        equ	3866	;# 
   284   000F1B                     RXM0EIDL        equ	3867	;# 
   285   000F1C                     RXM1SIDH        equ	3868	;# 
   286   000F1D                     RXM1SIDL        equ	3869	;# 
   287   000F1E                     RXM1EIDH        equ	3870	;# 
   288   000F1F                     RXM1EIDL        equ	3871	;# 
   289   000F20                     TXB2CON         equ	3872	;# 
   290   000F21                     TXB2SIDH        equ	3873	;# 
   291   000F22                     TXB2SIDL        equ	3874	;# 
   292   000F23                     TXB2EIDH        equ	3875	;# 
   293   000F24                     TXB2EIDL        equ	3876	;# 
   294   000F25                     TXB2DLC         equ	3877	;# 
   295   000F26                     TXB2D0          equ	3878	;# 
   296   000F27                     TXB2D1          equ	3879	;# 
   297   000F28                     TXB2D2          equ	3880	;# 
   298   000F29                     TXB2D3          equ	3881	;# 
   299   000F2A                     TXB2D4          equ	3882	;# 
   300   000F2B                     TXB2D5          equ	3883	;# 
   301   000F2C                     TXB2D6          equ	3884	;# 
   302   000F2D                     TXB2D7          equ	3885	;# 
   303   000F2E                     CANSTAT_RO3     equ	3886	;# 
   304   000F2F                     CANCON_RO3      equ	3887	;# 
   305   000F30                     TXB1CON         equ	3888	;# 
   306   000F31                     TXB1SIDH        equ	3889	;# 
   307   000F32                     TXB1SIDL        equ	3890	;# 
   308   000F33                     TXB1EIDH        equ	3891	;# 
   309   000F34                     TXB1EIDL        equ	3892	;# 
   310   000F35                     TXB1DLC         equ	3893	;# 
   311   000F36                     TXB1D0          equ	3894	;# 
   312   000F37                     TXB1D1          equ	3895	;# 
   313   000F38                     TXB1D2          equ	3896	;# 
   314   000F39                     TXB1D3          equ	3897	;# 
   315   000F3A                     TXB1D4          equ	3898	;# 
   316   000F3B                     TXB1D5          equ	3899	;# 
   317   000F3C                     TXB1D6          equ	3900	;# 
   318   000F3D                     TXB1D7          equ	3901	;# 
   319   000F3E                     CANSTAT_RO2     equ	3902	;# 
   320   000F3F                     CANCON_RO2      equ	3903	;# 
   321   000F40                     TXB0CON         equ	3904	;# 
   322   000F41                     TXB0SIDH        equ	3905	;# 
   323   000F42                     TXB0SIDL        equ	3906	;# 
   324   000F43                     TXB0EIDH        equ	3907	;# 
   325   000F44                     TXB0EIDL        equ	3908	;# 
   326   000F45                     TXB0DLC         equ	3909	;# 
   327   000F46                     TXB0D0          equ	3910	;# 
   328   000F47                     TXB0D1          equ	3911	;# 
   329   000F48                     TXB0D2          equ	3912	;# 
   330   000F49                     TXB0D3          equ	3913	;# 
   331   000F4A                     TXB0D4          equ	3914	;# 
   332   000F4B                     TXB0D5          equ	3915	;# 
   333   000F4C                     TXB0D6          equ	3916	;# 
   334   000F4D                     TXB0D7          equ	3917	;# 
   335   000F4E                     CANSTAT_RO1     equ	3918	;# 
   336   000F4F                     CANCON_RO1      equ	3919	;# 
   337   000F50                     RXB1CON         equ	3920	;# 
   338   000F51                     RXB1SIDH        equ	3921	;# 
   339   000F52                     RXB1SIDL        equ	3922	;# 
   340   000F53                     RXB1EIDH        equ	3923	;# 
   341   000F54                     RXB1EIDL        equ	3924	;# 
   342   000F55                     RXB1DLC         equ	3925	;# 
   343   000F56                     RXB1D0          equ	3926	;# 
   344   000F57                     RXB1D1          equ	3927	;# 
   345   000F58                     RXB1D2          equ	3928	;# 
   346   000F59                     RXB1D3          equ	3929	;# 
   347   000F5A                     RXB1D4          equ	3930	;# 
   348   000F5B                     RXB1D5          equ	3931	;# 
   349   000F5C                     RXB1D6          equ	3932	;# 
   350   000F5D                     RXB1D7          equ	3933	;# 
   351   000F5E                     CANSTAT_RO0     equ	3934	;# 
   352   000F5F                     CANCON_RO0      equ	3935	;# 
   353   000F60                     RXB0CON         equ	3936	;# 
   354   000F61                     RXB0SIDH        equ	3937	;# 
   355   000F62                     RXB0SIDL        equ	3938	;# 
   356   000F63                     RXB0EIDH        equ	3939	;# 
   357   000F64                     RXB0EIDL        equ	3940	;# 
   358   000F65                     RXB0DLC         equ	3941	;# 
   359   000F66                     RXB0D0          equ	3942	;# 
   360   000F67                     RXB0D1          equ	3943	;# 
   361   000F68                     RXB0D2          equ	3944	;# 
   362   000F69                     RXB0D3          equ	3945	;# 
   363   000F6A                     RXB0D4          equ	3946	;# 
   364   000F6B                     RXB0D5          equ	3947	;# 
   365   000F6C                     RXB0D6          equ	3948	;# 
   366   000F6D                     RXB0D7          equ	3949	;# 
   367   000F6E                     CANSTAT         equ	3950	;# 
   368   000F6F                     CANCON          equ	3951	;# 
   369   000F70                     BRGCON1         equ	3952	;# 
   370   000F71                     BRGCON2         equ	3953	;# 
   371   000F72                     BRGCON3         equ	3954	;# 
   372   000F73                     CIOCON          equ	3955	;# 
   373   000F74                     COMSTAT         equ	3956	;# 
   374   000F75                     RXERRCNT        equ	3957	;# 
   375   000F76                     TXERRCNT        equ	3958	;# 
   376   000F77                     ECANCON         equ	3959	;# 
   377   000F80                     PORTA           equ	3968	;# 
   378   000F81                     PORTB           equ	3969	;# 
   379   000F82                     PORTC           equ	3970	;# 
   380   000F83                     PORTD           equ	3971	;# 
   381   000F84                     PORTE           equ	3972	;# 
   382   000F89                     LATA            equ	3977	;# 
   383   000F8A                     LATB            equ	3978	;# 
   384   000F8B                     LATC            equ	3979	;# 
   385   000F8C                     LATD            equ	3980	;# 
   386   000F8D                     LATE            equ	3981	;# 
   387   000F92                     TRISA           equ	3986	;# 
   388   000F92                     DDRA            equ	3986	;# 
   389   000F93                     TRISB           equ	3987	;# 
   390   000F93                     DDRB            equ	3987	;# 
   391   000F94                     TRISC           equ	3988	;# 
   392   000F94                     DDRC            equ	3988	;# 
   393   000F95                     TRISD           equ	3989	;# 
   394   000F95                     DDRD            equ	3989	;# 
   395   000F96                     TRISE           equ	3990	;# 
   396   000F96                     DDRE            equ	3990	;# 
   397   000F9B                     OSCTUNE         equ	3995	;# 
   398   000F9D                     PIE1            equ	3997	;# 
   399   000F9E                     PIR1            equ	3998	;# 
   400   000F9F                     IPR1            equ	3999	;# 
   401   000FA0                     PIE2            equ	4000	;# 
   402   000FA1                     PIR2            equ	4001	;# 
   403   000FA2                     IPR2            equ	4002	;# 
   404   000FA3                     PIE3            equ	4003	;# 
   405   000FA4                     PIR3            equ	4004	;# 
   406   000FA5                     IPR3            equ	4005	;# 
   407   000FA6                     EECON1          equ	4006	;# 
   408   000FA7                     EECON2          equ	4007	;# 
   409   000FA8                     EEDATA          equ	4008	;# 
   410   000FA9                     EEADR           equ	4009	;# 
   411   000FAB                     RCSTA           equ	4011	;# 
   412   000FAB                     RCSTA1          equ	4011	;# 
   413   000FAC                     TXSTA           equ	4012	;# 
   414   000FAC                     TXSTA1          equ	4012	;# 
   415   000FAD                     TXREG           equ	4013	;# 
   416   000FAD                     TXREG1          equ	4013	;# 
   417   000FAE                     RCREG           equ	4014	;# 
   418   000FAE                     RCREG1          equ	4014	;# 
   419   000FAF                     SPBRG           equ	4015	;# 
   420   000FAF                     SPBRG1          equ	4015	;# 
   421   000FB0                     SPBRGH          equ	4016	;# 
   422   000FB1                     T3CON           equ	4017	;# 
   423   000FB2                     TMR3            equ	4018	;# 
   424   000FB2                     TMR3L           equ	4018	;# 
   425   000FB3                     TMR3H           equ	4019	;# 
   426   000FB4                     CMCON           equ	4020	;# 
   427   000FB5                     CVRCON          equ	4021	;# 
   428   000FB6                     ECCP1AS         equ	4022	;# 
   429   000FB7                     ECCP1DEL        equ	4023	;# 
   430   000FB8                     BAUDCON         equ	4024	;# 
   431   000FB8                     BAUDCTL         equ	4024	;# 
   432   000FBA                     ECCP1CON        equ	4026	;# 
   433   000FBB                     ECCPR1          equ	4027	;# 
   434   000FBB                     ECCPR1L         equ	4027	;# 
   435   000FBC                     ECCPR1H         equ	4028	;# 
   436   000FBD                     CCP1CON         equ	4029	;# 
   437   000FBE                     CCPR1           equ	4030	;# 
   438   000FBE                     CCPR1L          equ	4030	;# 
   439   000FBF                     CCPR1H          equ	4031	;# 
   440   000FC0                     ADCON2          equ	4032	;# 
   441   000FC1                     ADCON1          equ	4033	;# 
   442   000FC2                     ADCON0          equ	4034	;# 
   443   000FC3                     ADRES           equ	4035	;# 
   444   000FC3                     ADRESL          equ	4035	;# 
   445   000FC4                     ADRESH          equ	4036	;# 
   446   000FC5                     SSPCON2         equ	4037	;# 
   447   000FC6                     SSPCON1         equ	4038	;# 
   448   000FC7                     SSPSTAT         equ	4039	;# 
   449   000FC8                     SSPADD          equ	4040	;# 
   450   000FC9                     SSPBUF          equ	4041	;# 
   451   000FCA                     T2CON           equ	4042	;# 
   452   000FCB                     PR2             equ	4043	;# 
   453   000FCB                     MEMCON          equ	4043	;# 
   454   000FCC                     TMR2            equ	4044	;# 
   455   000FCD                     T1CON           equ	4045	;# 
   456   000FCE                     TMR1            equ	4046	;# 
   457   000FCE                     TMR1L           equ	4046	;# 
   458   000FCF                     TMR1H           equ	4047	;# 
   459   000FD0                     RCON            equ	4048	;# 
   460   000FD1                     WDTCON          equ	4049	;# 
   461   000FD2                     HLVDCON         equ	4050	;# 
   462   000FD2                     LVDCON          equ	4050	;# 
   463   000FD3                     OSCCON          equ	4051	;# 
   464   000FD5                     T0CON           equ	4053	;# 
   465   000FD6                     TMR0            equ	4054	;# 
   466   000FD6                     TMR0L           equ	4054	;# 
   467   000FD7                     TMR0H           equ	4055	;# 
   468   000FD8                     STATUS          equ	4056	;# 
   469   000FD9                     FSR2            equ	4057	;# 
   470   000FD9                     FSR2L           equ	4057	;# 
   471   000FDA                     FSR2H           equ	4058	;# 
   472   000FDB                     PLUSW2          equ	4059	;# 
   473   000FDC                     PREINC2         equ	4060	;# 
   474   000FDD                     POSTDEC2        equ	4061	;# 
   475   000FDE                     POSTINC2        equ	4062	;# 
   476   000FDF                     INDF2           equ	4063	;# 
   477   000FE0                     BSR             equ	4064	;# 
   478   000FE1                     FSR1            equ	4065	;# 
   479   000FE1                     FSR1L           equ	4065	;# 
   480   000FE2                     FSR1H           equ	4066	;# 
   481   000FE3                     PLUSW1          equ	4067	;# 
   482   000FE4                     PREINC1         equ	4068	;# 
   483   000FE5                     POSTDEC1        equ	4069	;# 
   484   000FE6                     POSTINC1        equ	4070	;# 
   485   000FE7                     INDF1           equ	4071	;# 
   486   000FE8                     WREG            equ	4072	;# 
   487   000FE9                     FSR0            equ	4073	;# 
   488   000FE9                     FSR0L           equ	4073	;# 
   489   000FEA                     FSR0H           equ	4074	;# 
   490   000FEB                     PLUSW0          equ	4075	;# 
   491   000FEC                     PREINC0         equ	4076	;# 
   492   000FED                     POSTDEC0        equ	4077	;# 
   493   000FEE                     POSTINC0        equ	4078	;# 
   494   000FEF                     INDF0           equ	4079	;# 
   495   000FF0                     INTCON3         equ	4080	;# 
   496   000FF1                     INTCON2         equ	4081	;# 
   497   000FF2                     INTCON          equ	4082	;# 
   498   000FF3                     PROD            equ	4083	;# 
   499   000FF3                     PRODL           equ	4083	;# 
   500   000FF4                     PRODH           equ	4084	;# 
   501   000FF5                     TABLAT          equ	4085	;# 
   502   000FF6                     TBLPTR          equ	4086	;# 
   503   000FF6                     TBLPTRL         equ	4086	;# 
   504   000FF7                     TBLPTRH         equ	4087	;# 
   505   000FF8                     TBLPTRU         equ	4088	;# 
   506   000FF9                     PCLAT           equ	4089	;# 
   507   000FF9                     PC              equ	4089	;# 
   508   000FF9                     PCL             equ	4089	;# 
   509   000FFA                     PCLATH          equ	4090	;# 
   510   000FFB                     PCLATU          equ	4091	;# 
   511   000FFC                     STKPTR          equ	4092	;# 
   512   000FFD                     TOS             equ	4093	;# 
   513   000FFD                     TOSL            equ	4093	;# 
   514   000FFE                     TOSH            equ	4094	;# 
   515   000FFF                     TOSU            equ	4095	;# 
   516   000D60                     RXF6SIDH        equ	3424	;# 
   517   000D61                     RXF6SIDL        equ	3425	;# 
   518   000D62                     RXF6EIDH        equ	3426	;# 
   519   000D63                     RXF6EIDL        equ	3427	;# 
   520   000D64                     RXF7SIDH        equ	3428	;# 
   521   000D65                     RXF7SIDL        equ	3429	;# 
   522   000D66                     RXF7EIDH        equ	3430	;# 
   523   000D67                     RXF7EIDL        equ	3431	;# 
   524   000D68                     RXF8SIDH        equ	3432	;# 
   525   000D69                     RXF8SIDL        equ	3433	;# 
   526   000D6A                     RXF8EIDH        equ	3434	;# 
   527   000D6B                     RXF8EIDL        equ	3435	;# 
   528   000D70                     RXF9SIDH        equ	3440	;# 
   529   000D71                     RXF9SIDL        equ	3441	;# 
   530   000D72                     RXF9EIDH        equ	3442	;# 
   531   000D73                     RXF9EIDL        equ	3443	;# 
   532   000D74                     RXF10SIDH       equ	3444	;# 
   533   000D75                     RXF10SIDL       equ	3445	;# 
   534   000D76                     RXF10EIDH       equ	3446	;# 
   535   000D77                     RXF10EIDL       equ	3447	;# 
   536   000D78                     RXF11SIDH       equ	3448	;# 
   537   000D79                     RXF11SIDL       equ	3449	;# 
   538   000D7A                     RXF11EIDH       equ	3450	;# 
   539   000D7B                     RXF11EIDL       equ	3451	;# 
   540   000D80                     RXF12SIDH       equ	3456	;# 
   541   000D81                     RXF12SIDL       equ	3457	;# 
   542   000D82                     RXF12EIDH       equ	3458	;# 
   543   000D83                     RXF12EIDL       equ	3459	;# 
   544   000D84                     RXF13SIDH       equ	3460	;# 
   545   000D85                     RXF13SIDL       equ	3461	;# 
   546   000D86                     RXF13EIDH       equ	3462	;# 
   547   000D87                     RXF13EIDL       equ	3463	;# 
   548   000D88                     RXF14SIDH       equ	3464	;# 
   549   000D89                     RXF14SIDL       equ	3465	;# 
   550   000D8A                     RXF14EIDH       equ	3466	;# 
   551   000D8B                     RXF14EIDL       equ	3467	;# 
   552   000D90                     RXF15SIDH       equ	3472	;# 
   553   000D91                     RXF15SIDL       equ	3473	;# 
   554   000D92                     RXF15EIDH       equ	3474	;# 
   555   000D93                     RXF15EIDL       equ	3475	;# 
   556   000DD4                     RXFCON0         equ	3540	;# 
   557   000DD5                     RXFCON1         equ	3541	;# 
   558   000DD8                     SDFLC           equ	3544	;# 
   559   000DE0                     RXFBCON0        equ	3552	;# 
   560   000DE1                     RXFBCON1        equ	3553	;# 
   561   000DE2                     RXFBCON2        equ	3554	;# 
   562   000DE3                     RXFBCON3        equ	3555	;# 
   563   000DE4                     RXFBCON4        equ	3556	;# 
   564   000DE5                     RXFBCON5        equ	3557	;# 
   565   000DE6                     RXFBCON6        equ	3558	;# 
   566   000DE7                     RXFBCON7        equ	3559	;# 
   567   000DF0                     MSEL0           equ	3568	;# 
   568   000DF1                     MSEL1           equ	3569	;# 
   569   000DF2                     MSEL2           equ	3570	;# 
   570   000DF3                     MSEL3           equ	3571	;# 
   571   000DF8                     BSEL0           equ	3576	;# 
   572   000DFA                     BIE0            equ	3578	;# 
   573   000DFC                     TXBIE           equ	3580	;# 
   574   000E20                     B0CON           equ	3616	;# 
   575   000E21                     B0SIDH          equ	3617	;# 
   576   000E22                     B0SIDL          equ	3618	;# 
   577   000E23                     B0EIDH          equ	3619	;# 
   578   000E24                     B0EIDL          equ	3620	;# 
   579   000E25                     B0DLC           equ	3621	;# 
   580   000E26                     B0D0            equ	3622	;# 
   581   000E27                     B0D1            equ	3623	;# 
   582   000E28                     B0D2            equ	3624	;# 
   583   000E29                     B0D3            equ	3625	;# 
   584   000E2A                     B0D4            equ	3626	;# 
   585   000E2B                     B0D5            equ	3627	;# 
   586   000E2C                     B0D6            equ	3628	;# 
   587   000E2D                     B0D7            equ	3629	;# 
   588   000E2E                     CANSTAT_RO9     equ	3630	;# 
   589   000E2F                     CANCON_RO9      equ	3631	;# 
   590   000E30                     B1CON           equ	3632	;# 
   591   000E31                     B1SIDH          equ	3633	;# 
   592   000E32                     B1SIDL          equ	3634	;# 
   593   000E33                     B1EIDH          equ	3635	;# 
   594   000E34                     B1EIDL          equ	3636	;# 
   595   000E35                     B1DLC           equ	3637	;# 
   596   000E36                     B1D0            equ	3638	;# 
   597   000E37                     B1D1            equ	3639	;# 
   598   000E38                     B1D2            equ	3640	;# 
   599   000E39                     B1D3            equ	3641	;# 
   600   000E3A                     B1D4            equ	3642	;# 
   601   000E3B                     B1D5            equ	3643	;# 
   602   000E3C                     B1D6            equ	3644	;# 
   603   000E3D                     B1D7            equ	3645	;# 
   604   000E3E                     CANSTAT_RO8     equ	3646	;# 
   605   000E3F                     CANCON_RO8      equ	3647	;# 
   606   000E40                     B2CON           equ	3648	;# 
   607   000E41                     B2SIDH          equ	3649	;# 
   608   000E42                     B2SIDL          equ	3650	;# 
   609   000E43                     B2EIDH          equ	3651	;# 
   610   000E44                     B2EIDL          equ	3652	;# 
   611   000E45                     B2DLC           equ	3653	;# 
   612   000E46                     B2D0            equ	3654	;# 
   613   000E47                     B2D1            equ	3655	;# 
   614   000E48                     B2D2            equ	3656	;# 
   615   000E49                     B2D3            equ	3657	;# 
   616   000E4A                     B2D4            equ	3658	;# 
   617   000E4B                     B2D5            equ	3659	;# 
   618   000E4C                     B2D6            equ	3660	;# 
   619   000E4D                     B2D7            equ	3661	;# 
   620   000E4E                     CANSTAT_RO7     equ	3662	;# 
   621   000E4F                     CANCON_RO7      equ	3663	;# 
   622   000E50                     B3CON           equ	3664	;# 
   623   000E51                     B3SIDH          equ	3665	;# 
   624   000E52                     B3SIDL          equ	3666	;# 
   625   000E53                     B3EIDH          equ	3667	;# 
   626   000E54                     B3EIDL          equ	3668	;# 
   627   000E55                     B3DLC           equ	3669	;# 
   628   000E56                     B3D0            equ	3670	;# 
   629   000E57                     B3D1            equ	3671	;# 
   630   000E58                     B3D2            equ	3672	;# 
   631   000E59                     B3D3            equ	3673	;# 
   632   000E5A                     B3D4            equ	3674	;# 
   633   000E5B                     B3D5            equ	3675	;# 
   634   000E5C                     B3D6            equ	3676	;# 
   635   000E5D                     B3D7            equ	3677	;# 
   636   000E5E                     CANSTAT_RO6     equ	3678	;# 
   637   000E5F                     CANCON_RO6      equ	3679	;# 
   638   000E60                     B4CON           equ	3680	;# 
   639   000E61                     B4SIDH          equ	3681	;# 
   640   000E62                     B4SIDL          equ	3682	;# 
   641   000E63                     B4EIDH          equ	3683	;# 
   642   000E64                     B4EIDL          equ	3684	;# 
   643   000E65                     B4DLC           equ	3685	;# 
   644   000E66                     B4D0            equ	3686	;# 
   645   000E67                     B4D1            equ	3687	;# 
   646   000E68                     B4D2            equ	3688	;# 
   647   000E69                     B4D3            equ	3689	;# 
   648   000E6A                     B4D4            equ	3690	;# 
   649   000E6B                     B4D5            equ	3691	;# 
   650   000E6C                     B4D6            equ	3692	;# 
   651   000E6D                     B4D7            equ	3693	;# 
   652   000E6E                     CANSTAT_RO5     equ	3694	;# 
   653   000E6F                     CANCON_RO5      equ	3695	;# 
   654   000E70                     B5CON           equ	3696	;# 
   655   000E71                     B5SIDH          equ	3697	;# 
   656   000E72                     B5SIDL          equ	3698	;# 
   657   000E73                     B5EIDH          equ	3699	;# 
   658   000E74                     B5EIDL          equ	3700	;# 
   659   000E75                     B5DLC           equ	3701	;# 
   660   000E76                     B5D0            equ	3702	;# 
   661   000E77                     B5D1            equ	3703	;# 
   662   000E78                     B5D2            equ	3704	;# 
   663   000E79                     B5D3            equ	3705	;# 
   664   000E7A                     B5D4            equ	3706	;# 
   665   000E7B                     B5D5            equ	3707	;# 
   666   000E7C                     B5D6            equ	3708	;# 
   667   000E7D                     B5D7            equ	3709	;# 
   668   000E7E                     CANSTAT_RO4     equ	3710	;# 
   669   000E7F                     CANCON_RO4      equ	3711	;# 
   670   000F00                     RXF0SIDH        equ	3840	;# 
   671   000F01                     RXF0SIDL        equ	3841	;# 
   672   000F02                     RXF0EIDH        equ	3842	;# 
   673   000F03                     RXF0EIDL        equ	3843	;# 
   674   000F04                     RXF1SIDH        equ	3844	;# 
   675   000F05                     RXF1SIDL        equ	3845	;# 
   676   000F06                     RXF1EIDH        equ	3846	;# 
   677   000F07                     RXF1EIDL        equ	3847	;# 
   678   000F08                     RXF2SIDH        equ	3848	;# 
   679   000F09                     RXF2SIDL        equ	3849	;# 
   680   000F0A                     RXF2EIDH        equ	3850	;# 
   681   000F0B                     RXF2EIDL        equ	3851	;# 
   682   000F0C                     RXF3SIDH        equ	3852	;# 
   683   000F0D                     RXF3SIDL        equ	3853	;# 
   684   000F0E                     RXF3EIDH        equ	3854	;# 
   685   000F0F                     RXF3EIDL        equ	3855	;# 
   686   000F10                     RXF4SIDH        equ	3856	;# 
   687   000F11                     RXF4SIDL        equ	3857	;# 
   688   000F12                     RXF4EIDH        equ	3858	;# 
   689   000F13                     RXF4EIDL        equ	3859	;# 
   690   000F14                     RXF5SIDH        equ	3860	;# 
   691   000F15                     RXF5SIDL        equ	3861	;# 
   692   000F16                     RXF5EIDH        equ	3862	;# 
   693   000F17                     RXF5EIDL        equ	3863	;# 
   694   000F18                     RXM0SIDH        equ	3864	;# 
   695   000F19                     RXM0SIDL        equ	3865	;# 
   696   000F1A                     RXM0EIDH        equ	3866	;# 
   697   000F1B                     RXM0EIDL        equ	3867	;# 
   698   000F1C                     RXM1SIDH        equ	3868	;# 
   699   000F1D                     RXM1SIDL        equ	3869	;# 
   700   000F1E                     RXM1EIDH        equ	3870	;# 
   701   000F1F                     RXM1EIDL        equ	3871	;# 
   702   000F20                     TXB2CON         equ	3872	;# 
   703   000F21                     TXB2SIDH        equ	3873	;# 
   704   000F22                     TXB2SIDL        equ	3874	;# 
   705   000F23                     TXB2EIDH        equ	3875	;# 
   706   000F24                     TXB2EIDL        equ	3876	;# 
   707   000F25                     TXB2DLC         equ	3877	;# 
   708   000F26                     TXB2D0          equ	3878	;# 
   709   000F27                     TXB2D1          equ	3879	;# 
   710   000F28                     TXB2D2          equ	3880	;# 
   711   000F29                     TXB2D3          equ	3881	;# 
   712   000F2A                     TXB2D4          equ	3882	;# 
   713   000F2B                     TXB2D5          equ	3883	;# 
   714   000F2C                     TXB2D6          equ	3884	;# 
   715   000F2D                     TXB2D7          equ	3885	;# 
   716   000F2E                     CANSTAT_RO3     equ	3886	;# 
   717   000F2F                     CANCON_RO3      equ	3887	;# 
   718   000F30                     TXB1CON         equ	3888	;# 
   719   000F31                     TXB1SIDH        equ	3889	;# 
   720   000F32                     TXB1SIDL        equ	3890	;# 
   721   000F33                     TXB1EIDH        equ	3891	;# 
   722   000F34                     TXB1EIDL        equ	3892	;# 
   723   000F35                     TXB1DLC         equ	3893	;# 
   724   000F36                     TXB1D0          equ	3894	;# 
   725   000F37                     TXB1D1          equ	3895	;# 
   726   000F38                     TXB1D2          equ	3896	;# 
   727   000F39                     TXB1D3          equ	3897	;# 
   728   000F3A                     TXB1D4          equ	3898	;# 
   729   000F3B                     TXB1D5          equ	3899	;# 
   730   000F3C                     TXB1D6          equ	3900	;# 
   731   000F3D                     TXB1D7          equ	3901	;# 
   732   000F3E                     CANSTAT_RO2     equ	3902	;# 
   733   000F3F                     CANCON_RO2      equ	3903	;# 
   734   000F40                     TXB0CON         equ	3904	;# 
   735   000F41                     TXB0SIDH        equ	3905	;# 
   736   000F42                     TXB0SIDL        equ	3906	;# 
   737   000F43                     TXB0EIDH        equ	3907	;# 
   738   000F44                     TXB0EIDL        equ	3908	;# 
   739   000F45                     TXB0DLC         equ	3909	;# 
   740   000F46                     TXB0D0          equ	3910	;# 
   741   000F47                     TXB0D1          equ	3911	;# 
   742   000F48                     TXB0D2          equ	3912	;# 
   743   000F49                     TXB0D3          equ	3913	;# 
   744   000F4A                     TXB0D4          equ	3914	;# 
   745   000F4B                     TXB0D5          equ	3915	;# 
   746   000F4C                     TXB0D6          equ	3916	;# 
   747   000F4D                     TXB0D7          equ	3917	;# 
   748   000F4E                     CANSTAT_RO1     equ	3918	;# 
   749   000F4F                     CANCON_RO1      equ	3919	;# 
   750   000F50                     RXB1CON         equ	3920	;# 
   751   000F51                     RXB1SIDH        equ	3921	;# 
   752   000F52                     RXB1SIDL        equ	3922	;# 
   753   000F53                     RXB1EIDH        equ	3923	;# 
   754   000F54                     RXB1EIDL        equ	3924	;# 
   755   000F55                     RXB1DLC         equ	3925	;# 
   756   000F56                     RXB1D0          equ	3926	;# 
   757   000F57                     RXB1D1          equ	3927	;# 
   758   000F58                     RXB1D2          equ	3928	;# 
   759   000F59                     RXB1D3          equ	3929	;# 
   760   000F5A                     RXB1D4          equ	3930	;# 
   761   000F5B                     RXB1D5          equ	3931	;# 
   762   000F5C                     RXB1D6          equ	3932	;# 
   763   000F5D                     RXB1D7          equ	3933	;# 
   764   000F5E                     CANSTAT_RO0     equ	3934	;# 
   765   000F5F                     CANCON_RO0      equ	3935	;# 
   766   000F60                     RXB0CON         equ	3936	;# 
   767   000F61                     RXB0SIDH        equ	3937	;# 
   768   000F62                     RXB0SIDL        equ	3938	;# 
   769   000F63                     RXB0EIDH        equ	3939	;# 
   770   000F64                     RXB0EIDL        equ	3940	;# 
   771   000F65                     RXB0DLC         equ	3941	;# 
   772   000F66                     RXB0D0          equ	3942	;# 
   773   000F67                     RXB0D1          equ	3943	;# 
   774   000F68                     RXB0D2          equ	3944	;# 
   775   000F69                     RXB0D3          equ	3945	;# 
   776   000F6A                     RXB0D4          equ	3946	;# 
   777   000F6B                     RXB0D5          equ	3947	;# 
   778   000F6C                     RXB0D6          equ	3948	;# 
   779   000F6D                     RXB0D7          equ	3949	;# 
   780   000F6E                     CANSTAT         equ	3950	;# 
   781   000F6F                     CANCON          equ	3951	;# 
   782   000F70                     BRGCON1         equ	3952	;# 
   783   000F71                     BRGCON2         equ	3953	;# 
   784   000F72                     BRGCON3         equ	3954	;# 
   785   000F73                     CIOCON          equ	3955	;# 
   786   000F74                     COMSTAT         equ	3956	;# 
   787   000F75                     RXERRCNT        equ	3957	;# 
   788   000F76                     TXERRCNT        equ	3958	;# 
   789   000F77                     ECANCON         equ	3959	;# 
   790   000F80                     PORTA           equ	3968	;# 
   791   000F81                     PORTB           equ	3969	;# 
   792   000F82                     PORTC           equ	3970	;# 
   793   000F83                     PORTD           equ	3971	;# 
   794   000F84                     PORTE           equ	3972	;# 
   795   000F89                     LATA            equ	3977	;# 
   796   000F8A                     LATB            equ	3978	;# 
   797   000F8B                     LATC            equ	3979	;# 
   798   000F8C                     LATD            equ	3980	;# 
   799   000F8D                     LATE            equ	3981	;# 
   800   000F92                     TRISA           equ	3986	;# 
   801   000F92                     DDRA            equ	3986	;# 
   802   000F93                     TRISB           equ	3987	;# 
   803   000F93                     DDRB            equ	3987	;# 
   804   000F94                     TRISC           equ	3988	;# 
   805   000F94                     DDRC            equ	3988	;# 
   806   000F95                     TRISD           equ	3989	;# 
   807   000F95                     DDRD            equ	3989	;# 
   808   000F96                     TRISE           equ	3990	;# 
   809   000F96                     DDRE            equ	3990	;# 
   810   000F9B                     OSCTUNE         equ	3995	;# 
   811   000F9D                     PIE1            equ	3997	;# 
   812   000F9E                     PIR1            equ	3998	;# 
   813   000F9F                     IPR1            equ	3999	;# 
   814   000FA0                     PIE2            equ	4000	;# 
   815   000FA1                     PIR2            equ	4001	;# 
   816   000FA2                     IPR2            equ	4002	;# 
   817   000FA3                     PIE3            equ	4003	;# 
   818   000FA4                     PIR3            equ	4004	;# 
   819   000FA5                     IPR3            equ	4005	;# 
   820   000FA6                     EECON1          equ	4006	;# 
   821   000FA7                     EECON2          equ	4007	;# 
   822   000FA8                     EEDATA          equ	4008	;# 
   823   000FA9                     EEADR           equ	4009	;# 
   824   000FAB                     RCSTA           equ	4011	;# 
   825   000FAB                     RCSTA1          equ	4011	;# 
   826   000FAC                     TXSTA           equ	4012	;# 
   827   000FAC                     TXSTA1          equ	4012	;# 
   828   000FAD                     TXREG           equ	4013	;# 
   829   000FAD                     TXREG1          equ	4013	;# 
   830   000FAE                     RCREG           equ	4014	;# 
   831   000FAE                     RCREG1          equ	4014	;# 
   832   000FAF                     SPBRG           equ	4015	;# 
   833   000FAF                     SPBRG1          equ	4015	;# 
   834   000FB0                     SPBRGH          equ	4016	;# 
   835   000FB1                     T3CON           equ	4017	;# 
   836   000FB2                     TMR3            equ	4018	;# 
   837   000FB2                     TMR3L           equ	4018	;# 
   838   000FB3                     TMR3H           equ	4019	;# 
   839   000FB4                     CMCON           equ	4020	;# 
   840   000FB5                     CVRCON          equ	4021	;# 
   841   000FB6                     ECCP1AS         equ	4022	;# 
   842   000FB7                     ECCP1DEL        equ	4023	;# 
   843   000FB8                     BAUDCON         equ	4024	;# 
   844   000FB8                     BAUDCTL         equ	4024	;# 
   845   000FBA                     ECCP1CON        equ	4026	;# 
   846   000FBB                     ECCPR1          equ	4027	;# 
   847   000FBB                     ECCPR1L         equ	4027	;# 
   848   000FBC                     ECCPR1H         equ	4028	;# 
   849   000FBD                     CCP1CON         equ	4029	;# 
   850   000FBE                     CCPR1           equ	4030	;# 
   851   000FBE                     CCPR1L          equ	4030	;# 
   852   000FBF                     CCPR1H          equ	4031	;# 
   853   000FC0                     ADCON2          equ	4032	;# 
   854   000FC1                     ADCON1          equ	4033	;# 
   855   000FC2                     ADCON0          equ	4034	;# 
   856   000FC3                     ADRES           equ	4035	;# 
   857   000FC3                     ADRESL          equ	4035	;# 
   858   000FC4                     ADRESH          equ	4036	;# 
   859   000FC5                     SSPCON2         equ	4037	;# 
   860   000FC6                     SSPCON1         equ	4038	;# 
   861   000FC7                     SSPSTAT         equ	4039	;# 
   862   000FC8                     SSPADD          equ	4040	;# 
   863   000FC9                     SSPBUF          equ	4041	;# 
   864   000FCA                     T2CON           equ	4042	;# 
   865   000FCB                     PR2             equ	4043	;# 
   866   000FCB                     MEMCON          equ	4043	;# 
   867   000FCC                     TMR2            equ	4044	;# 
   868   000FCD                     T1CON           equ	4045	;# 
   869   000FCE                     TMR1            equ	4046	;# 
   870   000FCE                     TMR1L           equ	4046	;# 
   871   000FCF                     TMR1H           equ	4047	;# 
   872   000FD0                     RCON            equ	4048	;# 
   873   000FD1                     WDTCON          equ	4049	;# 
   874   000FD2                     HLVDCON         equ	4050	;# 
   875   000FD2                     LVDCON          equ	4050	;# 
   876   000FD3                     OSCCON          equ	4051	;# 
   877   000FD5                     T0CON           equ	4053	;# 
   878   000FD6                     TMR0            equ	4054	;# 
   879   000FD6                     TMR0L           equ	4054	;# 
   880   000FD7                     TMR0H           equ	4055	;# 
   881   000FD8                     STATUS          equ	4056	;# 
   882   000FD9                     FSR2            equ	4057	;# 
   883   000FD9                     FSR2L           equ	4057	;# 
   884   000FDA                     FSR2H           equ	4058	;# 
   885   000FDB                     PLUSW2          equ	4059	;# 
   886   000FDC                     PREINC2         equ	4060	;# 
   887   000FDD                     POSTDEC2        equ	4061	;# 
   888   000FDE                     POSTINC2        equ	4062	;# 
   889   000FDF                     INDF2           equ	4063	;# 
   890   000FE0                     BSR             equ	4064	;# 
   891   000FE1                     FSR1            equ	4065	;# 
   892   000FE1                     FSR1L           equ	4065	;# 
   893   000FE2                     FSR1H           equ	4066	;# 
   894   000FE3                     PLUSW1          equ	4067	;# 
   895   000FE4                     PREINC1         equ	4068	;# 
   896   000FE5                     POSTDEC1        equ	4069	;# 
   897   000FE6                     POSTINC1        equ	4070	;# 
   898   000FE7                     INDF1           equ	4071	;# 
   899   000FE8                     WREG            equ	4072	;# 
   900   000FE9                     FSR0            equ	4073	;# 
   901   000FE9                     FSR0L           equ	4073	;# 
   902   000FEA                     FSR0H           equ	4074	;# 
   903   000FEB                     PLUSW0          equ	4075	;# 
   904   000FEC                     PREINC0         equ	4076	;# 
   905   000FED                     POSTDEC0        equ	4077	;# 
   906   000FEE                     POSTINC0        equ	4078	;# 
   907   000FEF                     INDF0           equ	4079	;# 
   908   000FF0                     INTCON3         equ	4080	;# 
   909   000FF1                     INTCON2         equ	4081	;# 
   910   000FF2                     INTCON          equ	4082	;# 
   911   000FF3                     PROD            equ	4083	;# 
   912   000FF3                     PRODL           equ	4083	;# 
   913   000FF4                     PRODH           equ	4084	;# 
   914   000FF5                     TABLAT          equ	4085	;# 
   915   000FF6                     TBLPTR          equ	4086	;# 
   916   000FF6                     TBLPTRL         equ	4086	;# 
   917   000FF7                     TBLPTRH         equ	4087	;# 
   918   000FF8                     TBLPTRU         equ	4088	;# 
   919   000FF9                     PCLAT           equ	4089	;# 
   920   000FF9                     PC              equ	4089	;# 
   921   000FF9                     PCL             equ	4089	;# 
   922   000FFA                     PCLATH          equ	4090	;# 
   923   000FFB                     PCLATU          equ	4091	;# 
   924   000FFC                     STKPTR          equ	4092	;# 
   925   000FFD                     TOS             equ	4093	;# 
   926   000FFD                     TOSL            equ	4093	;# 
   927   000FFE                     TOSH            equ	4094	;# 
   928   000FFF                     TOSU            equ	4095	;# 
   929   000D60                     RXF6SIDH        equ	3424	;# 
   930   000D61                     RXF6SIDL        equ	3425	;# 
   931   000D62                     RXF6EIDH        equ	3426	;# 
   932   000D63                     RXF6EIDL        equ	3427	;# 
   933   000D64                     RXF7SIDH        equ	3428	;# 
   934   000D65                     RXF7SIDL        equ	3429	;# 
   935   000D66                     RXF7EIDH        equ	3430	;# 
   936   000D67                     RXF7EIDL        equ	3431	;# 
   937   000D68                     RXF8SIDH        equ	3432	;# 
   938   000D69                     RXF8SIDL        equ	3433	;# 
   939   000D6A                     RXF8EIDH        equ	3434	;# 
   940   000D6B                     RXF8EIDL        equ	3435	;# 
   941   000D70                     RXF9SIDH        equ	3440	;# 
   942   000D71                     RXF9SIDL        equ	3441	;# 
   943   000D72                     RXF9EIDH        equ	3442	;# 
   944   000D73                     RXF9EIDL        equ	3443	;# 
   945   000D74                     RXF10SIDH       equ	3444	;# 
   946   000D75                     RXF10SIDL       equ	3445	;# 
   947   000D76                     RXF10EIDH       equ	3446	;# 
   948   000D77                     RXF10EIDL       equ	3447	;# 
   949   000D78                     RXF11SIDH       equ	3448	;# 
   950   000D79                     RXF11SIDL       equ	3449	;# 
   951   000D7A                     RXF11EIDH       equ	3450	;# 
   952   000D7B                     RXF11EIDL       equ	3451	;# 
   953   000D80                     RXF12SIDH       equ	3456	;# 
   954   000D81                     RXF12SIDL       equ	3457	;# 
   955   000D82                     RXF12EIDH       equ	3458	;# 
   956   000D83                     RXF12EIDL       equ	3459	;# 
   957   000D84                     RXF13SIDH       equ	3460	;# 
   958   000D85                     RXF13SIDL       equ	3461	;# 
   959   000D86                     RXF13EIDH       equ	3462	;# 
   960   000D87                     RXF13EIDL       equ	3463	;# 
   961   000D88                     RXF14SIDH       equ	3464	;# 
   962   000D89                     RXF14SIDL       equ	3465	;# 
   963   000D8A                     RXF14EIDH       equ	3466	;# 
   964   000D8B                     RXF14EIDL       equ	3467	;# 
   965   000D90                     RXF15SIDH       equ	3472	;# 
   966   000D91                     RXF15SIDL       equ	3473	;# 
   967   000D92                     RXF15EIDH       equ	3474	;# 
   968   000D93                     RXF15EIDL       equ	3475	;# 
   969   000DD4                     RXFCON0         equ	3540	;# 
   970   000DD5                     RXFCON1         equ	3541	;# 
   971   000DD8                     SDFLC           equ	3544	;# 
   972   000DE0                     RXFBCON0        equ	3552	;# 
   973   000DE1                     RXFBCON1        equ	3553	;# 
   974   000DE2                     RXFBCON2        equ	3554	;# 
   975   000DE3                     RXFBCON3        equ	3555	;# 
   976   000DE4                     RXFBCON4        equ	3556	;# 
   977   000DE5                     RXFBCON5        equ	3557	;# 
   978   000DE6                     RXFBCON6        equ	3558	;# 
   979   000DE7                     RXFBCON7        equ	3559	;# 
   980   000DF0                     MSEL0           equ	3568	;# 
   981   000DF1                     MSEL1           equ	3569	;# 
   982   000DF2                     MSEL2           equ	3570	;# 
   983   000DF3                     MSEL3           equ	3571	;# 
   984   000DF8                     BSEL0           equ	3576	;# 
   985   000DFA                     BIE0            equ	3578	;# 
   986   000DFC                     TXBIE           equ	3580	;# 
   987   000E20                     B0CON           equ	3616	;# 
   988   000E21                     B0SIDH          equ	3617	;# 
   989   000E22                     B0SIDL          equ	3618	;# 
   990   000E23                     B0EIDH          equ	3619	;# 
   991   000E24                     B0EIDL          equ	3620	;# 
   992   000E25                     B0DLC           equ	3621	;# 
   993   000E26                     B0D0            equ	3622	;# 
   994   000E27                     B0D1            equ	3623	;# 
   995   000E28                     B0D2            equ	3624	;# 
   996   000E29                     B0D3            equ	3625	;# 
   997   000E2A                     B0D4            equ	3626	;# 
   998   000E2B                     B0D5            equ	3627	;# 
   999   000E2C                     B0D6            equ	3628	;# 
  1000   000E2D                     B0D7            equ	3629	;# 
  1001   000E2E                     CANSTAT_RO9     equ	3630	;# 
  1002   000E2F                     CANCON_RO9      equ	3631	;# 
  1003   000E30                     B1CON           equ	3632	;# 
  1004   000E31                     B1SIDH          equ	3633	;# 
  1005   000E32                     B1SIDL          equ	3634	;# 
  1006   000E33                     B1EIDH          equ	3635	;# 
  1007   000E34                     B1EIDL          equ	3636	;# 
  1008   000E35                     B1DLC           equ	3637	;# 
  1009   000E36                     B1D0            equ	3638	;# 
  1010   000E37                     B1D1            equ	3639	;# 
  1011   000E38                     B1D2            equ	3640	;# 
  1012   000E39                     B1D3            equ	3641	;# 
  1013   000E3A                     B1D4            equ	3642	;# 
  1014   000E3B                     B1D5            equ	3643	;# 
  1015   000E3C                     B1D6            equ	3644	;# 
  1016   000E3D                     B1D7            equ	3645	;# 
  1017   000E3E                     CANSTAT_RO8     equ	3646	;# 
  1018   000E3F                     CANCON_RO8      equ	3647	;# 
  1019   000E40                     B2CON           equ	3648	;# 
  1020   000E41                     B2SIDH          equ	3649	;# 
  1021   000E42                     B2SIDL          equ	3650	;# 
  1022   000E43                     B2EIDH          equ	3651	;# 
  1023   000E44                     B2EIDL          equ	3652	;# 
  1024   000E45                     B2DLC           equ	3653	;# 
  1025   000E46                     B2D0            equ	3654	;# 
  1026   000E47                     B2D1            equ	3655	;# 
  1027   000E48                     B2D2            equ	3656	;# 
  1028   000E49                     B2D3            equ	3657	;# 
  1029   000E4A                     B2D4            equ	3658	;# 
  1030   000E4B                     B2D5            equ	3659	;# 
  1031   000E4C                     B2D6            equ	3660	;# 
  1032   000E4D                     B2D7            equ	3661	;# 
  1033   000E4E                     CANSTAT_RO7     equ	3662	;# 
  1034   000E4F                     CANCON_RO7      equ	3663	;# 
  1035   000E50                     B3CON           equ	3664	;# 
  1036   000E51                     B3SIDH          equ	3665	;# 
  1037   000E52                     B3SIDL          equ	3666	;# 
  1038   000E53                     B3EIDH          equ	3667	;# 
  1039   000E54                     B3EIDL          equ	3668	;# 
  1040   000E55                     B3DLC           equ	3669	;# 
  1041   000E56                     B3D0            equ	3670	;# 
  1042   000E57                     B3D1            equ	3671	;# 
  1043   000E58                     B3D2            equ	3672	;# 
  1044   000E59                     B3D3            equ	3673	;# 
  1045   000E5A                     B3D4            equ	3674	;# 
  1046   000E5B                     B3D5            equ	3675	;# 
  1047   000E5C                     B3D6            equ	3676	;# 
  1048   000E5D                     B3D7            equ	3677	;# 
  1049   000E5E                     CANSTAT_RO6     equ	3678	;# 
  1050   000E5F                     CANCON_RO6      equ	3679	;# 
  1051   000E60                     B4CON           equ	3680	;# 
  1052   000E61                     B4SIDH          equ	3681	;# 
  1053   000E62                     B4SIDL          equ	3682	;# 
  1054   000E63                     B4EIDH          equ	3683	;# 
  1055   000E64                     B4EIDL          equ	3684	;# 
  1056   000E65                     B4DLC           equ	3685	;# 
  1057   000E66                     B4D0            equ	3686	;# 
  1058   000E67                     B4D1            equ	3687	;# 
  1059   000E68                     B4D2            equ	3688	;# 
  1060   000E69                     B4D3            equ	3689	;# 
  1061   000E6A                     B4D4            equ	3690	;# 
  1062   000E6B                     B4D5            equ	3691	;# 
  1063   000E6C                     B4D6            equ	3692	;# 
  1064   000E6D                     B4D7            equ	3693	;# 
  1065   000E6E                     CANSTAT_RO5     equ	3694	;# 
  1066   000E6F                     CANCON_RO5      equ	3695	;# 
  1067   000E70                     B5CON           equ	3696	;# 
  1068   000E71                     B5SIDH          equ	3697	;# 
  1069   000E72                     B5SIDL          equ	3698	;# 
  1070   000E73                     B5EIDH          equ	3699	;# 
  1071   000E74                     B5EIDL          equ	3700	;# 
  1072   000E75                     B5DLC           equ	3701	;# 
  1073   000E76                     B5D0            equ	3702	;# 
  1074   000E77                     B5D1            equ	3703	;# 
  1075   000E78                     B5D2            equ	3704	;# 
  1076   000E79                     B5D3            equ	3705	;# 
  1077   000E7A                     B5D4            equ	3706	;# 
  1078   000E7B                     B5D5            equ	3707	;# 
  1079   000E7C                     B5D6            equ	3708	;# 
  1080   000E7D                     B5D7            equ	3709	;# 
  1081   000E7E                     CANSTAT_RO4     equ	3710	;# 
  1082   000E7F                     CANCON_RO4      equ	3711	;# 
  1083   000F00                     RXF0SIDH        equ	3840	;# 
  1084   000F01                     RXF0SIDL        equ	3841	;# 
  1085   000F02                     RXF0EIDH        equ	3842	;# 
  1086   000F03                     RXF0EIDL        equ	3843	;# 
  1087   000F04                     RXF1SIDH        equ	3844	;# 
  1088   000F05                     RXF1SIDL        equ	3845	;# 
  1089   000F06                     RXF1EIDH        equ	3846	;# 
  1090   000F07                     RXF1EIDL        equ	3847	;# 
  1091   000F08                     RXF2SIDH        equ	3848	;# 
  1092   000F09                     RXF2SIDL        equ	3849	;# 
  1093   000F0A                     RXF2EIDH        equ	3850	;# 
  1094   000F0B                     RXF2EIDL        equ	3851	;# 
  1095   000F0C                     RXF3SIDH        equ	3852	;# 
  1096   000F0D                     RXF3SIDL        equ	3853	;# 
  1097   000F0E                     RXF3EIDH        equ	3854	;# 
  1098   000F0F                     RXF3EIDL        equ	3855	;# 
  1099   000F10                     RXF4SIDH        equ	3856	;# 
  1100   000F11                     RXF4SIDL        equ	3857	;# 
  1101   000F12                     RXF4EIDH        equ	3858	;# 
  1102   000F13                     RXF4EIDL        equ	3859	;# 
  1103   000F14                     RXF5SIDH        equ	3860	;# 
  1104   000F15                     RXF5SIDL        equ	3861	;# 
  1105   000F16                     RXF5EIDH        equ	3862	;# 
  1106   000F17                     RXF5EIDL        equ	3863	;# 
  1107   000F18                     RXM0SIDH        equ	3864	;# 
  1108   000F19                     RXM0SIDL        equ	3865	;# 
  1109   000F1A                     RXM0EIDH        equ	3866	;# 
  1110   000F1B                     RXM0EIDL        equ	3867	;# 
  1111   000F1C                     RXM1SIDH        equ	3868	;# 
  1112   000F1D                     RXM1SIDL        equ	3869	;# 
  1113   000F1E                     RXM1EIDH        equ	3870	;# 
  1114   000F1F                     RXM1EIDL        equ	3871	;# 
  1115   000F20                     TXB2CON         equ	3872	;# 
  1116   000F21                     TXB2SIDH        equ	3873	;# 
  1117   000F22                     TXB2SIDL        equ	3874	;# 
  1118   000F23                     TXB2EIDH        equ	3875	;# 
  1119   000F24                     TXB2EIDL        equ	3876	;# 
  1120   000F25                     TXB2DLC         equ	3877	;# 
  1121   000F26                     TXB2D0          equ	3878	;# 
  1122   000F27                     TXB2D1          equ	3879	;# 
  1123   000F28                     TXB2D2          equ	3880	;# 
  1124   000F29                     TXB2D3          equ	3881	;# 
  1125   000F2A                     TXB2D4          equ	3882	;# 
  1126   000F2B                     TXB2D5          equ	3883	;# 
  1127   000F2C                     TXB2D6          equ	3884	;# 
  1128   000F2D                     TXB2D7          equ	3885	;# 
  1129   000F2E                     CANSTAT_RO3     equ	3886	;# 
  1130   000F2F                     CANCON_RO3      equ	3887	;# 
  1131   000F30                     TXB1CON         equ	3888	;# 
  1132   000F31                     TXB1SIDH        equ	3889	;# 
  1133   000F32                     TXB1SIDL        equ	3890	;# 
  1134   000F33                     TXB1EIDH        equ	3891	;# 
  1135   000F34                     TXB1EIDL        equ	3892	;# 
  1136   000F35                     TXB1DLC         equ	3893	;# 
  1137   000F36                     TXB1D0          equ	3894	;# 
  1138   000F37                     TXB1D1          equ	3895	;# 
  1139   000F38                     TXB1D2          equ	3896	;# 
  1140   000F39                     TXB1D3          equ	3897	;# 
  1141   000F3A                     TXB1D4          equ	3898	;# 
  1142   000F3B                     TXB1D5          equ	3899	;# 
  1143   000F3C                     TXB1D6          equ	3900	;# 
  1144   000F3D                     TXB1D7          equ	3901	;# 
  1145   000F3E                     CANSTAT_RO2     equ	3902	;# 
  1146   000F3F                     CANCON_RO2      equ	3903	;# 
  1147   000F40                     TXB0CON         equ	3904	;# 
  1148   000F41                     TXB0SIDH        equ	3905	;# 
  1149   000F42                     TXB0SIDL        equ	3906	;# 
  1150   000F43                     TXB0EIDH        equ	3907	;# 
  1151   000F44                     TXB0EIDL        equ	3908	;# 
  1152   000F45                     TXB0DLC         equ	3909	;# 
  1153   000F46                     TXB0D0          equ	3910	;# 
  1154   000F47                     TXB0D1          equ	3911	;# 
  1155   000F48                     TXB0D2          equ	3912	;# 
  1156   000F49                     TXB0D3          equ	3913	;# 
  1157   000F4A                     TXB0D4          equ	3914	;# 
  1158   000F4B                     TXB0D5          equ	3915	;# 
  1159   000F4C                     TXB0D6          equ	3916	;# 
  1160   000F4D                     TXB0D7          equ	3917	;# 
  1161   000F4E                     CANSTAT_RO1     equ	3918	;# 
  1162   000F4F                     CANCON_RO1      equ	3919	;# 
  1163   000F50                     RXB1CON         equ	3920	;# 
  1164   000F51                     RXB1SIDH        equ	3921	;# 
  1165   000F52                     RXB1SIDL        equ	3922	;# 
  1166   000F53                     RXB1EIDH        equ	3923	;# 
  1167   000F54                     RXB1EIDL        equ	3924	;# 
  1168   000F55                     RXB1DLC         equ	3925	;# 
  1169   000F56                     RXB1D0          equ	3926	;# 
  1170   000F57                     RXB1D1          equ	3927	;# 
  1171   000F58                     RXB1D2          equ	3928	;# 
  1172   000F59                     RXB1D3          equ	3929	;# 
  1173   000F5A                     RXB1D4          equ	3930	;# 
  1174   000F5B                     RXB1D5          equ	3931	;# 
  1175   000F5C                     RXB1D6          equ	3932	;# 
  1176   000F5D                     RXB1D7          equ	3933	;# 
  1177   000F5E                     CANSTAT_RO0     equ	3934	;# 
  1178   000F5F                     CANCON_RO0      equ	3935	;# 
  1179   000F60                     RXB0CON         equ	3936	;# 
  1180   000F61                     RXB0SIDH        equ	3937	;# 
  1181   000F62                     RXB0SIDL        equ	3938	;# 
  1182   000F63                     RXB0EIDH        equ	3939	;# 
  1183   000F64                     RXB0EIDL        equ	3940	;# 
  1184   000F65                     RXB0DLC         equ	3941	;# 
  1185   000F66                     RXB0D0          equ	3942	;# 
  1186   000F67                     RXB0D1          equ	3943	;# 
  1187   000F68                     RXB0D2          equ	3944	;# 
  1188   000F69                     RXB0D3          equ	3945	;# 
  1189   000F6A                     RXB0D4          equ	3946	;# 
  1190   000F6B                     RXB0D5          equ	3947	;# 
  1191   000F6C                     RXB0D6          equ	3948	;# 
  1192   000F6D                     RXB0D7          equ	3949	;# 
  1193   000F6E                     CANSTAT         equ	3950	;# 
  1194   000F6F                     CANCON          equ	3951	;# 
  1195   000F70                     BRGCON1         equ	3952	;# 
  1196   000F71                     BRGCON2         equ	3953	;# 
  1197   000F72                     BRGCON3         equ	3954	;# 
  1198   000F73                     CIOCON          equ	3955	;# 
  1199   000F74                     COMSTAT         equ	3956	;# 
  1200   000F75                     RXERRCNT        equ	3957	;# 
  1201   000F76                     TXERRCNT        equ	3958	;# 
  1202   000F77                     ECANCON         equ	3959	;# 
  1203   000F80                     PORTA           equ	3968	;# 
  1204   000F81                     PORTB           equ	3969	;# 
  1205   000F82                     PORTC           equ	3970	;# 
  1206   000F83                     PORTD           equ	3971	;# 
  1207   000F84                     PORTE           equ	3972	;# 
  1208   000F89                     LATA            equ	3977	;# 
  1209   000F8A                     LATB            equ	3978	;# 
  1210   000F8B                     LATC            equ	3979	;# 
  1211   000F8C                     LATD            equ	3980	;# 
  1212   000F8D                     LATE            equ	3981	;# 
  1213   000F92                     TRISA           equ	3986	;# 
  1214   000F92                     DDRA            equ	3986	;# 
  1215   000F93                     TRISB           equ	3987	;# 
  1216   000F93                     DDRB            equ	3987	;# 
  1217   000F94                     TRISC           equ	3988	;# 
  1218   000F94                     DDRC            equ	3988	;# 
  1219   000F95                     TRISD           equ	3989	;# 
  1220   000F95                     DDRD            equ	3989	;# 
  1221   000F96                     TRISE           equ	3990	;# 
  1222   000F96                     DDRE            equ	3990	;# 
  1223   000F9B                     OSCTUNE         equ	3995	;# 
  1224   000F9D                     PIE1            equ	3997	;# 
  1225   000F9E                     PIR1            equ	3998	;# 
  1226   000F9F                     IPR1            equ	3999	;# 
  1227   000FA0                     PIE2            equ	4000	;# 
  1228   000FA1                     PIR2            equ	4001	;# 
  1229   000FA2                     IPR2            equ	4002	;# 
  1230   000FA3                     PIE3            equ	4003	;# 
  1231   000FA4                     PIR3            equ	4004	;# 
  1232   000FA5                     IPR3            equ	4005	;# 
  1233   000FA6                     EECON1          equ	4006	;# 
  1234   000FA7                     EECON2          equ	4007	;# 
  1235   000FA8                     EEDATA          equ	4008	;# 
  1236   000FA9                     EEADR           equ	4009	;# 
  1237   000FAB                     RCSTA           equ	4011	;# 
  1238   000FAB                     RCSTA1          equ	4011	;# 
  1239   000FAC                     TXSTA           equ	4012	;# 
  1240   000FAC                     TXSTA1          equ	4012	;# 
  1241   000FAD                     TXREG           equ	4013	;# 
  1242   000FAD                     TXREG1          equ	4013	;# 
  1243   000FAE                     RCREG           equ	4014	;# 
  1244   000FAE                     RCREG1          equ	4014	;# 
  1245   000FAF                     SPBRG           equ	4015	;# 
  1246   000FAF                     SPBRG1          equ	4015	;# 
  1247   000FB0                     SPBRGH          equ	4016	;# 
  1248   000FB1                     T3CON           equ	4017	;# 
  1249   000FB2                     TMR3            equ	4018	;# 
  1250   000FB2                     TMR3L           equ	4018	;# 
  1251   000FB3                     TMR3H           equ	4019	;# 
  1252   000FB4                     CMCON           equ	4020	;# 
  1253   000FB5                     CVRCON          equ	4021	;# 
  1254   000FB6                     ECCP1AS         equ	4022	;# 
  1255   000FB7                     ECCP1DEL        equ	4023	;# 
  1256   000FB8                     BAUDCON         equ	4024	;# 
  1257   000FB8                     BAUDCTL         equ	4024	;# 
  1258   000FBA                     ECCP1CON        equ	4026	;# 
  1259   000FBB                     ECCPR1          equ	4027	;# 
  1260   000FBB                     ECCPR1L         equ	4027	;# 
  1261   000FBC                     ECCPR1H         equ	4028	;# 
  1262   000FBD                     CCP1CON         equ	4029	;# 
  1263   000FBE                     CCPR1           equ	4030	;# 
  1264   000FBE                     CCPR1L          equ	4030	;# 
  1265   000FBF                     CCPR1H          equ	4031	;# 
  1266   000FC0                     ADCON2          equ	4032	;# 
  1267   000FC1                     ADCON1          equ	4033	;# 
  1268   000FC2                     ADCON0          equ	4034	;# 
  1269   000FC3                     ADRES           equ	4035	;# 
  1270   000FC3                     ADRESL          equ	4035	;# 
  1271   000FC4                     ADRESH          equ	4036	;# 
  1272   000FC5                     SSPCON2         equ	4037	;# 
  1273   000FC6                     SSPCON1         equ	4038	;# 
  1274   000FC7                     SSPSTAT         equ	4039	;# 
  1275   000FC8                     SSPADD          equ	4040	;# 
  1276   000FC9                     SSPBUF          equ	4041	;# 
  1277   000FCA                     T2CON           equ	4042	;# 
  1278   000FCB                     PR2             equ	4043	;# 
  1279   000FCB                     MEMCON          equ	4043	;# 
  1280   000FCC                     TMR2            equ	4044	;# 
  1281   000FCD                     T1CON           equ	4045	;# 
  1282   000FCE                     TMR1            equ	4046	;# 
  1283   000FCE                     TMR1L           equ	4046	;# 
  1284   000FCF                     TMR1H           equ	4047	;# 
  1285   000FD0                     RCON            equ	4048	;# 
  1286   000FD1                     WDTCON          equ	4049	;# 
  1287   000FD2                     HLVDCON         equ	4050	;# 
  1288   000FD2                     LVDCON          equ	4050	;# 
  1289   000FD3                     OSCCON          equ	4051	;# 
  1290   000FD5                     T0CON           equ	4053	;# 
  1291   000FD6                     TMR0            equ	4054	;# 
  1292   000FD6                     TMR0L           equ	4054	;# 
  1293   000FD7                     TMR0H           equ	4055	;# 
  1294   000FD8                     STATUS          equ	4056	;# 
  1295   000FD9                     FSR2            equ	4057	;# 
  1296   000FD9                     FSR2L           equ	4057	;# 
  1297   000FDA                     FSR2H           equ	4058	;# 
  1298   000FDB                     PLUSW2          equ	4059	;# 
  1299   000FDC                     PREINC2         equ	4060	;# 
  1300   000FDD                     POSTDEC2        equ	4061	;# 
  1301   000FDE                     POSTINC2        equ	4062	;# 
  1302   000FDF                     INDF2           equ	4063	;# 
  1303   000FE0                     BSR             equ	4064	;# 
  1304   000FE1                     FSR1            equ	4065	;# 
  1305   000FE1                     FSR1L           equ	4065	;# 
  1306   000FE2                     FSR1H           equ	4066	;# 
  1307   000FE3                     PLUSW1          equ	4067	;# 
  1308   000FE4                     PREINC1         equ	4068	;# 
  1309   000FE5                     POSTDEC1        equ	4069	;# 
  1310   000FE6                     POSTINC1        equ	4070	;# 
  1311   000FE7                     INDF1           equ	4071	;# 
  1312   000FE8                     WREG            equ	4072	;# 
  1313   000FE9                     FSR0            equ	4073	;# 
  1314   000FE9                     FSR0L           equ	4073	;# 
  1315   000FEA                     FSR0H           equ	4074	;# 
  1316   000FEB                     PLUSW0          equ	4075	;# 
  1317   000FEC                     PREINC0         equ	4076	;# 
  1318   000FED                     POSTDEC0        equ	4077	;# 
  1319   000FEE                     POSTINC0        equ	4078	;# 
  1320   000FEF                     INDF0           equ	4079	;# 
  1321   000FF0                     INTCON3         equ	4080	;# 
  1322   000FF1                     INTCON2         equ	4081	;# 
  1323   000FF2                     INTCON          equ	4082	;# 
  1324   000FF3                     PROD            equ	4083	;# 
  1325   000FF3                     PRODL           equ	4083	;# 
  1326   000FF4                     PRODH           equ	4084	;# 
  1327   000FF5                     TABLAT          equ	4085	;# 
  1328   000FF6                     TBLPTR          equ	4086	;# 
  1329   000FF6                     TBLPTRL         equ	4086	;# 
  1330   000FF7                     TBLPTRH         equ	4087	;# 
  1331   000FF8                     TBLPTRU         equ	4088	;# 
  1332   000FF9                     PCLAT           equ	4089	;# 
  1333   000FF9                     PC              equ	4089	;# 
  1334   000FF9                     PCL             equ	4089	;# 
  1335   000FFA                     PCLATH          equ	4090	;# 
  1336   000FFB                     PCLATU          equ	4091	;# 
  1337   000FFC                     STKPTR          equ	4092	;# 
  1338   000FFD                     TOS             equ	4093	;# 
  1339   000FFD                     TOSL            equ	4093	;# 
  1340   000FFE                     TOSH            equ	4094	;# 
  1341   000FFF                     TOSU            equ	4095	;# 
  1342   000D60                     RXF6SIDH        equ	3424	;# 
  1343   000D61                     RXF6SIDL        equ	3425	;# 
  1344   000D62                     RXF6EIDH        equ	3426	;# 
  1345   000D63                     RXF6EIDL        equ	3427	;# 
  1346   000D64                     RXF7SIDH        equ	3428	;# 
  1347   000D65                     RXF7SIDL        equ	3429	;# 
  1348   000D66                     RXF7EIDH        equ	3430	;# 
  1349   000D67                     RXF7EIDL        equ	3431	;# 
  1350   000D68                     RXF8SIDH        equ	3432	;# 
  1351   000D69                     RXF8SIDL        equ	3433	;# 
  1352   000D6A                     RXF8EIDH        equ	3434	;# 
  1353   000D6B                     RXF8EIDL        equ	3435	;# 
  1354   000D70                     RXF9SIDH        equ	3440	;# 
  1355   000D71                     RXF9SIDL        equ	3441	;# 
  1356   000D72                     RXF9EIDH        equ	3442	;# 
  1357   000D73                     RXF9EIDL        equ	3443	;# 
  1358   000D74                     RXF10SIDH       equ	3444	;# 
  1359   000D75                     RXF10SIDL       equ	3445	;# 
  1360   000D76                     RXF10EIDH       equ	3446	;# 
  1361   000D77                     RXF10EIDL       equ	3447	;# 
  1362   000D78                     RXF11SIDH       equ	3448	;# 
  1363   000D79                     RXF11SIDL       equ	3449	;# 
  1364   000D7A                     RXF11EIDH       equ	3450	;# 
  1365   000D7B                     RXF11EIDL       equ	3451	;# 
  1366   000D80                     RXF12SIDH       equ	3456	;# 
  1367   000D81                     RXF12SIDL       equ	3457	;# 
  1368   000D82                     RXF12EIDH       equ	3458	;# 
  1369   000D83                     RXF12EIDL       equ	3459	;# 
  1370   000D84                     RXF13SIDH       equ	3460	;# 
  1371   000D85                     RXF13SIDL       equ	3461	;# 
  1372   000D86                     RXF13EIDH       equ	3462	;# 
  1373   000D87                     RXF13EIDL       equ	3463	;# 
  1374   000D88                     RXF14SIDH       equ	3464	;# 
  1375   000D89                     RXF14SIDL       equ	3465	;# 
  1376   000D8A                     RXF14EIDH       equ	3466	;# 
  1377   000D8B                     RXF14EIDL       equ	3467	;# 
  1378   000D90                     RXF15SIDH       equ	3472	;# 
  1379   000D91                     RXF15SIDL       equ	3473	;# 
  1380   000D92                     RXF15EIDH       equ	3474	;# 
  1381   000D93                     RXF15EIDL       equ	3475	;# 
  1382   000DD4                     RXFCON0         equ	3540	;# 
  1383   000DD5                     RXFCON1         equ	3541	;# 
  1384   000DD8                     SDFLC           equ	3544	;# 
  1385   000DE0                     RXFBCON0        equ	3552	;# 
  1386   000DE1                     RXFBCON1        equ	3553	;# 
  1387   000DE2                     RXFBCON2        equ	3554	;# 
  1388   000DE3                     RXFBCON3        equ	3555	;# 
  1389   000DE4                     RXFBCON4        equ	3556	;# 
  1390   000DE5                     RXFBCON5        equ	3557	;# 
  1391   000DE6                     RXFBCON6        equ	3558	;# 
  1392   000DE7                     RXFBCON7        equ	3559	;# 
  1393   000DF0                     MSEL0           equ	3568	;# 
  1394   000DF1                     MSEL1           equ	3569	;# 
  1395   000DF2                     MSEL2           equ	3570	;# 
  1396   000DF3                     MSEL3           equ	3571	;# 
  1397   000DF8                     BSEL0           equ	3576	;# 
  1398   000DFA                     BIE0            equ	3578	;# 
  1399   000DFC                     TXBIE           equ	3580	;# 
  1400   000E20                     B0CON           equ	3616	;# 
  1401   000E21                     B0SIDH          equ	3617	;# 
  1402   000E22                     B0SIDL          equ	3618	;# 
  1403   000E23                     B0EIDH          equ	3619	;# 
  1404   000E24                     B0EIDL          equ	3620	;# 
  1405   000E25                     B0DLC           equ	3621	;# 
  1406   000E26                     B0D0            equ	3622	;# 
  1407   000E27                     B0D1            equ	3623	;# 
  1408   000E28                     B0D2            equ	3624	;# 
  1409   000E29                     B0D3            equ	3625	;# 
  1410   000E2A                     B0D4            equ	3626	;# 
  1411   000E2B                     B0D5            equ	3627	;# 
  1412   000E2C                     B0D6            equ	3628	;# 
  1413   000E2D                     B0D7            equ	3629	;# 
  1414   000E2E                     CANSTAT_RO9     equ	3630	;# 
  1415   000E2F                     CANCON_RO9      equ	3631	;# 
  1416   000E30                     B1CON           equ	3632	;# 
  1417   000E31                     B1SIDH          equ	3633	;# 
  1418   000E32                     B1SIDL          equ	3634	;# 
  1419   000E33                     B1EIDH          equ	3635	;# 
  1420   000E34                     B1EIDL          equ	3636	;# 
  1421   000E35                     B1DLC           equ	3637	;# 
  1422   000E36                     B1D0            equ	3638	;# 
  1423   000E37                     B1D1            equ	3639	;# 
  1424   000E38                     B1D2            equ	3640	;# 
  1425   000E39                     B1D3            equ	3641	;# 
  1426   000E3A                     B1D4            equ	3642	;# 
  1427   000E3B                     B1D5            equ	3643	;# 
  1428   000E3C                     B1D6            equ	3644	;# 
  1429   000E3D                     B1D7            equ	3645	;# 
  1430   000E3E                     CANSTAT_RO8     equ	3646	;# 
  1431   000E3F                     CANCON_RO8      equ	3647	;# 
  1432   000E40                     B2CON           equ	3648	;# 
  1433   000E41                     B2SIDH          equ	3649	;# 
  1434   000E42                     B2SIDL          equ	3650	;# 
  1435   000E43                     B2EIDH          equ	3651	;# 
  1436   000E44                     B2EIDL          equ	3652	;# 
  1437   000E45                     B2DLC           equ	3653	;# 
  1438   000E46                     B2D0            equ	3654	;# 
  1439   000E47                     B2D1            equ	3655	;# 
  1440   000E48                     B2D2            equ	3656	;# 
  1441   000E49                     B2D3            equ	3657	;# 
  1442   000E4A                     B2D4            equ	3658	;# 
  1443   000E4B                     B2D5            equ	3659	;# 
  1444   000E4C                     B2D6            equ	3660	;# 
  1445   000E4D                     B2D7            equ	3661	;# 
  1446   000E4E                     CANSTAT_RO7     equ	3662	;# 
  1447   000E4F                     CANCON_RO7      equ	3663	;# 
  1448   000E50                     B3CON           equ	3664	;# 
  1449   000E51                     B3SIDH          equ	3665	;# 
  1450   000E52                     B3SIDL          equ	3666	;# 
  1451   000E53                     B3EIDH          equ	3667	;# 
  1452   000E54                     B3EIDL          equ	3668	;# 
  1453   000E55                     B3DLC           equ	3669	;# 
  1454   000E56                     B3D0            equ	3670	;# 
  1455   000E57                     B3D1            equ	3671	;# 
  1456   000E58                     B3D2            equ	3672	;# 
  1457   000E59                     B3D3            equ	3673	;# 
  1458   000E5A                     B3D4            equ	3674	;# 
  1459   000E5B                     B3D5            equ	3675	;# 
  1460   000E5C                     B3D6            equ	3676	;# 
  1461   000E5D                     B3D7            equ	3677	;# 
  1462   000E5E                     CANSTAT_RO6     equ	3678	;# 
  1463   000E5F                     CANCON_RO6      equ	3679	;# 
  1464   000E60                     B4CON           equ	3680	;# 
  1465   000E61                     B4SIDH          equ	3681	;# 
  1466   000E62                     B4SIDL          equ	3682	;# 
  1467   000E63                     B4EIDH          equ	3683	;# 
  1468   000E64                     B4EIDL          equ	3684	;# 
  1469   000E65                     B4DLC           equ	3685	;# 
  1470   000E66                     B4D0            equ	3686	;# 
  1471   000E67                     B4D1            equ	3687	;# 
  1472   000E68                     B4D2            equ	3688	;# 
  1473   000E69                     B4D3            equ	3689	;# 
  1474   000E6A                     B4D4            equ	3690	;# 
  1475   000E6B                     B4D5            equ	3691	;# 
  1476   000E6C                     B4D6            equ	3692	;# 
  1477   000E6D                     B4D7            equ	3693	;# 
  1478   000E6E                     CANSTAT_RO5     equ	3694	;# 
  1479   000E6F                     CANCON_RO5      equ	3695	;# 
  1480   000E70                     B5CON           equ	3696	;# 
  1481   000E71                     B5SIDH          equ	3697	;# 
  1482   000E72                     B5SIDL          equ	3698	;# 
  1483   000E73                     B5EIDH          equ	3699	;# 
  1484   000E74                     B5EIDL          equ	3700	;# 
  1485   000E75                     B5DLC           equ	3701	;# 
  1486   000E76                     B5D0            equ	3702	;# 
  1487   000E77                     B5D1            equ	3703	;# 
  1488   000E78                     B5D2            equ	3704	;# 
  1489   000E79                     B5D3            equ	3705	;# 
  1490   000E7A                     B5D4            equ	3706	;# 
  1491   000E7B                     B5D5            equ	3707	;# 
  1492   000E7C                     B5D6            equ	3708	;# 
  1493   000E7D                     B5D7            equ	3709	;# 
  1494   000E7E                     CANSTAT_RO4     equ	3710	;# 
  1495   000E7F                     CANCON_RO4      equ	3711	;# 
  1496   000F00                     RXF0SIDH        equ	3840	;# 
  1497   000F01                     RXF0SIDL        equ	3841	;# 
  1498   000F02                     RXF0EIDH        equ	3842	;# 
  1499   000F03                     RXF0EIDL        equ	3843	;# 
  1500   000F04                     RXF1SIDH        equ	3844	;# 
  1501   000F05                     RXF1SIDL        equ	3845	;# 
  1502   000F06                     RXF1EIDH        equ	3846	;# 
  1503   000F07                     RXF1EIDL        equ	3847	;# 
  1504   000F08                     RXF2SIDH        equ	3848	;# 
  1505   000F09                     RXF2SIDL        equ	3849	;# 
  1506   000F0A                     RXF2EIDH        equ	3850	;# 
  1507   000F0B                     RXF2EIDL        equ	3851	;# 
  1508   000F0C                     RXF3SIDH        equ	3852	;# 
  1509   000F0D                     RXF3SIDL        equ	3853	;# 
  1510   000F0E                     RXF3EIDH        equ	3854	;# 
  1511   000F0F                     RXF3EIDL        equ	3855	;# 
  1512   000F10                     RXF4SIDH        equ	3856	;# 
  1513   000F11                     RXF4SIDL        equ	3857	;# 
  1514   000F12                     RXF4EIDH        equ	3858	;# 
  1515   000F13                     RXF4EIDL        equ	3859	;# 
  1516   000F14                     RXF5SIDH        equ	3860	;# 
  1517   000F15                     RXF5SIDL        equ	3861	;# 
  1518   000F16                     RXF5EIDH        equ	3862	;# 
  1519   000F17                     RXF5EIDL        equ	3863	;# 
  1520   000F18                     RXM0SIDH        equ	3864	;# 
  1521   000F19                     RXM0SIDL        equ	3865	;# 
  1522   000F1A                     RXM0EIDH        equ	3866	;# 
  1523   000F1B                     RXM0EIDL        equ	3867	;# 
  1524   000F1C                     RXM1SIDH        equ	3868	;# 
  1525   000F1D                     RXM1SIDL        equ	3869	;# 
  1526   000F1E                     RXM1EIDH        equ	3870	;# 
  1527   000F1F                     RXM1EIDL        equ	3871	;# 
  1528   000F20                     TXB2CON         equ	3872	;# 
  1529   000F21                     TXB2SIDH        equ	3873	;# 
  1530   000F22                     TXB2SIDL        equ	3874	;# 
  1531   000F23                     TXB2EIDH        equ	3875	;# 
  1532   000F24                     TXB2EIDL        equ	3876	;# 
  1533   000F25                     TXB2DLC         equ	3877	;# 
  1534   000F26                     TXB2D0          equ	3878	;# 
  1535   000F27                     TXB2D1          equ	3879	;# 
  1536   000F28                     TXB2D2          equ	3880	;# 
  1537   000F29                     TXB2D3          equ	3881	;# 
  1538   000F2A                     TXB2D4          equ	3882	;# 
  1539   000F2B                     TXB2D5          equ	3883	;# 
  1540   000F2C                     TXB2D6          equ	3884	;# 
  1541   000F2D                     TXB2D7          equ	3885	;# 
  1542   000F2E                     CANSTAT_RO3     equ	3886	;# 
  1543   000F2F                     CANCON_RO3      equ	3887	;# 
  1544   000F30                     TXB1CON         equ	3888	;# 
  1545   000F31                     TXB1SIDH        equ	3889	;# 
  1546   000F32                     TXB1SIDL        equ	3890	;# 
  1547   000F33                     TXB1EIDH        equ	3891	;# 
  1548   000F34                     TXB1EIDL        equ	3892	;# 
  1549   000F35                     TXB1DLC         equ	3893	;# 
  1550   000F36                     TXB1D0          equ	3894	;# 
  1551   000F37                     TXB1D1          equ	3895	;# 
  1552   000F38                     TXB1D2          equ	3896	;# 
  1553   000F39                     TXB1D3          equ	3897	;# 
  1554   000F3A                     TXB1D4          equ	3898	;# 
  1555   000F3B                     TXB1D5          equ	3899	;# 
  1556   000F3C                     TXB1D6          equ	3900	;# 
  1557   000F3D                     TXB1D7          equ	3901	;# 
  1558   000F3E                     CANSTAT_RO2     equ	3902	;# 
  1559   000F3F                     CANCON_RO2      equ	3903	;# 
  1560   000F40                     TXB0CON         equ	3904	;# 
  1561   000F41                     TXB0SIDH        equ	3905	;# 
  1562   000F42                     TXB0SIDL        equ	3906	;# 
  1563   000F43                     TXB0EIDH        equ	3907	;# 
  1564   000F44                     TXB0EIDL        equ	3908	;# 
  1565   000F45                     TXB0DLC         equ	3909	;# 
  1566   000F46                     TXB0D0          equ	3910	;# 
  1567   000F47                     TXB0D1          equ	3911	;# 
  1568   000F48                     TXB0D2          equ	3912	;# 
  1569   000F49                     TXB0D3          equ	3913	;# 
  1570   000F4A                     TXB0D4          equ	3914	;# 
  1571   000F4B                     TXB0D5          equ	3915	;# 
  1572   000F4C                     TXB0D6          equ	3916	;# 
  1573   000F4D                     TXB0D7          equ	3917	;# 
  1574   000F4E                     CANSTAT_RO1     equ	3918	;# 
  1575   000F4F                     CANCON_RO1      equ	3919	;# 
  1576   000F50                     RXB1CON         equ	3920	;# 
  1577   000F51                     RXB1SIDH        equ	3921	;# 
  1578   000F52                     RXB1SIDL        equ	3922	;# 
  1579   000F53                     RXB1EIDH        equ	3923	;# 
  1580   000F54                     RXB1EIDL        equ	3924	;# 
  1581   000F55                     RXB1DLC         equ	3925	;# 
  1582   000F56                     RXB1D0          equ	3926	;# 
  1583   000F57                     RXB1D1          equ	3927	;# 
  1584   000F58                     RXB1D2          equ	3928	;# 
  1585   000F59                     RXB1D3          equ	3929	;# 
  1586   000F5A                     RXB1D4          equ	3930	;# 
  1587   000F5B                     RXB1D5          equ	3931	;# 
  1588   000F5C                     RXB1D6          equ	3932	;# 
  1589   000F5D                     RXB1D7          equ	3933	;# 
  1590   000F5E                     CANSTAT_RO0     equ	3934	;# 
  1591   000F5F                     CANCON_RO0      equ	3935	;# 
  1592   000F60                     RXB0CON         equ	3936	;# 
  1593   000F61                     RXB0SIDH        equ	3937	;# 
  1594   000F62                     RXB0SIDL        equ	3938	;# 
  1595   000F63                     RXB0EIDH        equ	3939	;# 
  1596   000F64                     RXB0EIDL        equ	3940	;# 
  1597   000F65                     RXB0DLC         equ	3941	;# 
  1598   000F66                     RXB0D0          equ	3942	;# 
  1599   000F67                     RXB0D1          equ	3943	;# 
  1600   000F68                     RXB0D2          equ	3944	;# 
  1601   000F69                     RXB0D3          equ	3945	;# 
  1602   000F6A                     RXB0D4          equ	3946	;# 
  1603   000F6B                     RXB0D5          equ	3947	;# 
  1604   000F6C                     RXB0D6          equ	3948	;# 
  1605   000F6D                     RXB0D7          equ	3949	;# 
  1606   000F6E                     CANSTAT         equ	3950	;# 
  1607   000F6F                     CANCON          equ	3951	;# 
  1608   000F70                     BRGCON1         equ	3952	;# 
  1609   000F71                     BRGCON2         equ	3953	;# 
  1610   000F72                     BRGCON3         equ	3954	;# 
  1611   000F73                     CIOCON          equ	3955	;# 
  1612   000F74                     COMSTAT         equ	3956	;# 
  1613   000F75                     RXERRCNT        equ	3957	;# 
  1614   000F76                     TXERRCNT        equ	3958	;# 
  1615   000F77                     ECANCON         equ	3959	;# 
  1616   000F80                     PORTA           equ	3968	;# 
  1617   000F81                     PORTB           equ	3969	;# 
  1618   000F82                     PORTC           equ	3970	;# 
  1619   000F83                     PORTD           equ	3971	;# 
  1620   000F84                     PORTE           equ	3972	;# 
  1621   000F89                     LATA            equ	3977	;# 
  1622   000F8A                     LATB            equ	3978	;# 
  1623   000F8B                     LATC            equ	3979	;# 
  1624   000F8C                     LATD            equ	3980	;# 
  1625   000F8D                     LATE            equ	3981	;# 
  1626   000F92                     TRISA           equ	3986	;# 
  1627   000F92                     DDRA            equ	3986	;# 
  1628   000F93                     TRISB           equ	3987	;# 
  1629   000F93                     DDRB            equ	3987	;# 
  1630   000F94                     TRISC           equ	3988	;# 
  1631   000F94                     DDRC            equ	3988	;# 
  1632   000F95                     TRISD           equ	3989	;# 
  1633   000F95                     DDRD            equ	3989	;# 
  1634   000F96                     TRISE           equ	3990	;# 
  1635   000F96                     DDRE            equ	3990	;# 
  1636   000F9B                     OSCTUNE         equ	3995	;# 
  1637   000F9D                     PIE1            equ	3997	;# 
  1638   000F9E                     PIR1            equ	3998	;# 
  1639   000F9F                     IPR1            equ	3999	;# 
  1640   000FA0                     PIE2            equ	4000	;# 
  1641   000FA1                     PIR2            equ	4001	;# 
  1642   000FA2                     IPR2            equ	4002	;# 
  1643   000FA3                     PIE3            equ	4003	;# 
  1644   000FA4                     PIR3            equ	4004	;# 
  1645   000FA5                     IPR3            equ	4005	;# 
  1646   000FA6                     EECON1          equ	4006	;# 
  1647   000FA7                     EECON2          equ	4007	;# 
  1648   000FA8                     EEDATA          equ	4008	;# 
  1649   000FA9                     EEADR           equ	4009	;# 
  1650   000FAB                     RCSTA           equ	4011	;# 
  1651   000FAB                     RCSTA1          equ	4011	;# 
  1652   000FAC                     TXSTA           equ	4012	;# 
  1653   000FAC                     TXSTA1          equ	4012	;# 
  1654   000FAD                     TXREG           equ	4013	;# 
  1655   000FAD                     TXREG1          equ	4013	;# 
  1656   000FAE                     RCREG           equ	4014	;# 
  1657   000FAE                     RCREG1          equ	4014	;# 
  1658   000FAF                     SPBRG           equ	4015	;# 
  1659   000FAF                     SPBRG1          equ	4015	;# 
  1660   000FB0                     SPBRGH          equ	4016	;# 
  1661   000FB1                     T3CON           equ	4017	;# 
  1662   000FB2                     TMR3            equ	4018	;# 
  1663   000FB2                     TMR3L           equ	4018	;# 
  1664   000FB3                     TMR3H           equ	4019	;# 
  1665   000FB4                     CMCON           equ	4020	;# 
  1666   000FB5                     CVRCON          equ	4021	;# 
  1667   000FB6                     ECCP1AS         equ	4022	;# 
  1668   000FB7                     ECCP1DEL        equ	4023	;# 
  1669   000FB8                     BAUDCON         equ	4024	;# 
  1670   000FB8                     BAUDCTL         equ	4024	;# 
  1671   000FBA                     ECCP1CON        equ	4026	;# 
  1672   000FBB                     ECCPR1          equ	4027	;# 
  1673   000FBB                     ECCPR1L         equ	4027	;# 
  1674   000FBC                     ECCPR1H         equ	4028	;# 
  1675   000FBD                     CCP1CON         equ	4029	;# 
  1676   000FBE                     CCPR1           equ	4030	;# 
  1677   000FBE                     CCPR1L          equ	4030	;# 
  1678   000FBF                     CCPR1H          equ	4031	;# 
  1679   000FC0                     ADCON2          equ	4032	;# 
  1680   000FC1                     ADCON1          equ	4033	;# 
  1681   000FC2                     ADCON0          equ	4034	;# 
  1682   000FC3                     ADRES           equ	4035	;# 
  1683   000FC3                     ADRESL          equ	4035	;# 
  1684   000FC4                     ADRESH          equ	4036	;# 
  1685   000FC5                     SSPCON2         equ	4037	;# 
  1686   000FC6                     SSPCON1         equ	4038	;# 
  1687   000FC7                     SSPSTAT         equ	4039	;# 
  1688   000FC8                     SSPADD          equ	4040	;# 
  1689   000FC9                     SSPBUF          equ	4041	;# 
  1690   000FCA                     T2CON           equ	4042	;# 
  1691   000FCB                     PR2             equ	4043	;# 
  1692   000FCB                     MEMCON          equ	4043	;# 
  1693   000FCC                     TMR2            equ	4044	;# 
  1694   000FCD                     T1CON           equ	4045	;# 
  1695   000FCE                     TMR1            equ	4046	;# 
  1696   000FCE                     TMR1L           equ	4046	;# 
  1697   000FCF                     TMR1H           equ	4047	;# 
  1698   000FD0                     RCON            equ	4048	;# 
  1699   000FD1                     WDTCON          equ	4049	;# 
  1700   000FD2                     HLVDCON         equ	4050	;# 
  1701   000FD2                     LVDCON          equ	4050	;# 
  1702   000FD3                     OSCCON          equ	4051	;# 
  1703   000FD5                     T0CON           equ	4053	;# 
  1704   000FD6                     TMR0            equ	4054	;# 
  1705   000FD6                     TMR0L           equ	4054	;# 
  1706   000FD7                     TMR0H           equ	4055	;# 
  1707   000FD8                     STATUS          equ	4056	;# 
  1708   000FD9                     FSR2            equ	4057	;# 
  1709   000FD9                     FSR2L           equ	4057	;# 
  1710   000FDA                     FSR2H           equ	4058	;# 
  1711   000FDB                     PLUSW2          equ	4059	;# 
  1712   000FDC                     PREINC2         equ	4060	;# 
  1713   000FDD                     POSTDEC2        equ	4061	;# 
  1714   000FDE                     POSTINC2        equ	4062	;# 
  1715   000FDF                     INDF2           equ	4063	;# 
  1716   000FE0                     BSR             equ	4064	;# 
  1717   000FE1                     FSR1            equ	4065	;# 
  1718   000FE1                     FSR1L           equ	4065	;# 
  1719   000FE2                     FSR1H           equ	4066	;# 
  1720   000FE3                     PLUSW1          equ	4067	;# 
  1721   000FE4                     PREINC1         equ	4068	;# 
  1722   000FE5                     POSTDEC1        equ	4069	;# 
  1723   000FE6                     POSTINC1        equ	4070	;# 
  1724   000FE7                     INDF1           equ	4071	;# 
  1725   000FE8                     WREG            equ	4072	;# 
  1726   000FE9                     FSR0            equ	4073	;# 
  1727   000FE9                     FSR0L           equ	4073	;# 
  1728   000FEA                     FSR0H           equ	4074	;# 
  1729   000FEB                     PLUSW0          equ	4075	;# 
  1730   000FEC                     PREINC0         equ	4076	;# 
  1731   000FED                     POSTDEC0        equ	4077	;# 
  1732   000FEE                     POSTINC0        equ	4078	;# 
  1733   000FEF                     INDF0           equ	4079	;# 
  1734   000FF0                     INTCON3         equ	4080	;# 
  1735   000FF1                     INTCON2         equ	4081	;# 
  1736   000FF2                     INTCON          equ	4082	;# 
  1737   000FF3                     PROD            equ	4083	;# 
  1738   000FF3                     PRODL           equ	4083	;# 
  1739   000FF4                     PRODH           equ	4084	;# 
  1740   000FF5                     TABLAT          equ	4085	;# 
  1741   000FF6                     TBLPTR          equ	4086	;# 
  1742   000FF6                     TBLPTRL         equ	4086	;# 
  1743   000FF7                     TBLPTRH         equ	4087	;# 
  1744   000FF8                     TBLPTRU         equ	4088	;# 
  1745   000FF9                     PCLAT           equ	4089	;# 
  1746   000FF9                     PC              equ	4089	;# 
  1747   000FF9                     PCL             equ	4089	;# 
  1748   000FFA                     PCLATH          equ	4090	;# 
  1749   000FFB                     PCLATU          equ	4091	;# 
  1750   000FFC                     STKPTR          equ	4092	;# 
  1751   000FFD                     TOS             equ	4093	;# 
  1752   000FFD                     TOSL            equ	4093	;# 
  1753   000FFE                     TOSH            equ	4094	;# 
  1754   000FFF                     TOSU            equ	4095	;# 
  1755   000DD4                     _RXFCON0        set	3540
  1756   000F45                     _TXB0DLC        set	3909
  1757   000F44                     _TXB0EIDL       set	3908
  1758   000F43                     _TXB0EIDH       set	3907
  1759   000F41                     _TXB0SIDH       set	3905
  1760   000F42                     _TXB0SIDL       set	3906
  1761   000F46                     _TXB0D0         set	3910
  1762   007A03                     _TXB0REQ        set	31235
  1763   000F81                     _PORTB          set	3969
  1764   000F93                     _TRISB          set	3987
  1765   000F65                     _RXB0DLC        set	3941
  1766   000F61                     _RXB0SIDH       set	3937
  1767   000F62                     _RXB0SIDL       set	3938
  1768   000F60                     _RXB0CONbits    set	3936
  1769   000F60                     _RXB0CON        set	3936
  1770   000F72                     _BRGCON3        set	3954
  1771   000F71                     _BRGCON2        set	3953
  1772   000F70                     _BRGCON1        set	3952
  1773   000F77                     _ECANCON        set	3959
  1774   000F6E                     _CANSTAT        set	3950
  1775   000F6F                     _CANCON         set	3951
  1776   000F94                     _TRISC          set	3988
  1777   000F95                     _TRISD          set	3989
  1778   000F83                     _PORTD          set	3971
  1779   000F66                     _RXB0D0         set	3942
  1780   007D20                     _RXB0IF         set	32032
  1781   007B07                     _RXB0FUL        set	31495
  1782   007C9B                     _TRISB3         set	31899
  1783   007C9A                     _TRISB2         set	31898
  1784   007C1F                     _RD7            set	31775
  1785   007C10                     _RC0            set	31760
  1786   007CAF                     _TRISD7         set	31919
  1787   007C12                     _RC2            set	31762
  1788   007C11                     _RC1            set	31761
  1789                           
  1790                           	psect	mediumconst
  1791   002FD8                     __pmediumconst:
  1792                           	callstack 0
  1793   002FD8  00                 	db	0
  1794   002FD9                     STR_2:
  1795                           
  1796                           ; BSR set to: 13
  1797   002FD9  47                 	db	71	;'G'
  1798   002FDA  45                 	db	69	;'E'
  1799   002FDB  41                 	db	65	;'A'
  1800   002FDC  52                 	db	82	;'R'
  1801   002FDD  3A                 	db	58	;':'
  1802   002FDE  00                 	db	0
  1803   002FDF                     STR_4:
  1804                           
  1805                           ; BSR set to: 13
  1806   002FDF  49                 	db	73	;'I'
  1807   002FE0  4E                 	db	78	;'N'
  1808   002FE1  44                 	db	68	;'D'
  1809   002FE2  3A                 	db	58	;':'
  1810   002FE3  00                 	db	0
  1811   002FE4                     STR_1:
  1812                           
  1813                           ; BSR set to: 13
  1814   002FE4  53                 	db	83	;'S'
  1815   002FE5  50                 	db	80	;'P'
  1816   002FE6  44                 	db	68	;'D'
  1817   002FE7  3A                 	db	58	;':'
  1818   002FE8  00                 	db	0
  1819   002FE9                     STR_3:
  1820                           
  1821                           ; BSR set to: 13
  1822   002FE9  52                 	db	82	;'R'
  1823   002FEA  50                 	db	80	;'P'
  1824   002FEB  4D                 	db	77	;'M'
  1825   002FEC  3A                 	db	58	;':'
  1826   002FED  00                 	db	0
  1827   002FEE                     STR_6:
  1828                           
  1829                           ; BSR set to: 13
  1830   002FEE  3C                 	db	60	;'<'
  1831   002FEF  2D                 	db	45
  1832   002FF0  20                 	db	32
  1833   002FF1  00                 	db	0
  1834   002FF2                     STR_5:
  1835                           
  1836                           ; BSR set to: 13
  1837   002FF2  2D                 	db	45
  1838   002FF3  3E                 	db	62	;'>'
  1839   002FF4  20                 	db	32
  1840   002FF5  00                 	db	0
  1841   002FF6                     STR_7:
  1842                           
  1843                           ; BSR set to: 13
  1844   002FF6  4F                 	db	79	;'O'
  1845   002FF7  46                 	db	70	;'F'
  1846   002FF8  46                 	db	70	;'F'
  1847   002FF9  00                 	db	0
  1848   002FFA  00                 	db	0	; dummy byte at the end
  1849   002FD8                     __smallconst    set	__pmediumconst
  1850   002FD8                     __mediumconst   set	__pmediumconst
  1851   000002                     __activetblptr  equ	2
  1852                           
  1853                           ; #config settings
  1854                           
  1855                           	psect	cinit
  1856   002B16                     __pcinit:
  1857                           	callstack 0
  1858   002B16                     start_initialization:
  1859                           	callstack 0
  1860   002B16                     __initialization:
  1861                           	callstack 0
  1862                           
  1863                           ; Clear objects allocated to COMRAM (4 bytes)
  1864   002B16  6A23               	clrf	(__pbssCOMRAM+3)& (0+255),c
  1865   002B18  6A22               	clrf	(__pbssCOMRAM+2)& (0+255),c
  1866   002B1A  6A21               	clrf	(__pbssCOMRAM+1)& (0+255),c
  1867   002B1C  6A20               	clrf	__pbssCOMRAM& (0+255),c
  1868   002B1E                     end_of_initialization:
  1869                           	callstack 0
  1870   002B1E                     __end_of__initialization:
  1871                           	callstack 0
  1872   002B1E  0E00               	movlw	low (__Lmediumconst shr (0+16))
  1873   002B20  6EF8               	movwf	tblptru,c
  1874   002B22  0100               	movlb	0
  1875   002B24  EF83  F015         	goto	_main	;jump to C main() function
  1876                           
  1877                           	psect	bssCOMRAM
  1878   000020                     __pbssCOMRAM:
  1879                           	callstack 0
  1880   000020                     handle_indicator_data@delay:
  1881                           	callstack 0
  1882   000020                     	ds	2
  1883   000022                     _status:
  1884                           	callstack 0
  1885   000022                     	ds	1
  1886   000023                     _led_state:
  1887                           	callstack 0
  1888   000023                     	ds	1
  1889                           
  1890                           	psect	cstackCOMRAM
  1891   000001                     __pcstackCOMRAM:
  1892                           	callstack 0
  1893   000001                     ?_get_msg_id_std:
  1894                           	callstack 0
  1895   000001                     clcd_write@control_bit:
  1896                           	callstack 0
  1897   000001                     
  1898                           ; 1 bytes @ 0x0
  1899   000001                     	ds	1
  1900   000002                     clcd_write@byte:
  1901                           	callstack 0
  1902   000002                     
  1903                           ; 1 bytes @ 0x1
  1904   000002                     	ds	1
  1905   000003                     clcd_print@data:
  1906                           	callstack 0
  1907   000003                     ??_init_clcd:
  1908   000003                     ??_get_msg_id_std:
  1909                           
  1910                           ; 1 bytes @ 0x2
  1911   000003                     	ds	1
  1912   000004                     
  1913                           ; 1 bytes @ 0x3
  1914   000004                     	ds	1
  1915   000005                     clcd_print@addr:
  1916                           	callstack 0
  1917                           
  1918                           ; 1 bytes @ 0x4
  1919   000005                     	ds	1
  1920   000006                     handle_speed_data@data:
  1921                           	callstack 0
  1922   000006                     handle_gear_data@data:
  1923                           	callstack 0
  1924   000006                     handle_rpm_data@data:
  1925                           	callstack 0
  1926   000006                     handle_indicator_data@data:
  1927                           	callstack 0
  1928   000006                     
  1929                           ; 1 bytes @ 0x5
  1930   000006                     	ds	1
  1931   000007                     handle_speed_data@len:
  1932                           	callstack 0
  1933   000007                     handle_gear_data@len:
  1934                           	callstack 0
  1935   000007                     handle_rpm_data@len:
  1936                           	callstack 0
  1937   000007                     handle_indicator_data@len:
  1938                           	callstack 0
  1939   000007                     get_msg_id_std@id:
  1940                           	callstack 0
  1941                           
  1942                           ; 2 bytes @ 0x6
  1943   000007                     	ds	1
  1944   000008                     
  1945                           ; 1 bytes @ 0x7
  1946   000008                     	ds	1
  1947   000009                     can_receive@msg_id:
  1948                           	callstack 0
  1949                           
  1950                           ; 1 bytes @ 0x8
  1951   000009                     	ds	1
  1952   00000A                     can_receive@data:
  1953                           	callstack 0
  1954                           
  1955                           ; 1 bytes @ 0x9
  1956   00000A                     	ds	1
  1957   00000B                     can_receive@len:
  1958                           	callstack 0
  1959                           
  1960                           ; 1 bytes @ 0xA
  1961   00000B                     	ds	1
  1962   00000C                     ??_can_receive:
  1963                           
  1964                           ; 1 bytes @ 0xB
  1965   00000C                     	ds	3
  1966   00000F                     can_receive@ptr:
  1967                           	callstack 0
  1968                           
  1969                           ; 2 bytes @ 0xE
  1970   00000F                     	ds	2
  1971   000011                     can_receive@i:
  1972                           	callstack 0
  1973                           
  1974                           ; 2 bytes @ 0x10
  1975   000011                     	ds	2
  1976   000013                     process_canbus_data@data:
  1977                           	callstack 0
  1978   000013                     
  1979                           ; 1 bytes @ 0x12
  1980   000013                     	ds	10
  1981   00001D                     process_canbus_data@msg_id:
  1982                           	callstack 0
  1983                           
  1984                           ; 2 bytes @ 0x1C
  1985   00001D                     	ds	2
  1986   00001F                     process_canbus_data@len:
  1987                           	callstack 0
  1988                           
  1989                           ; 1 bytes @ 0x1E
  1990   00001F                     	ds	1
  1991   000020                     
  1992                           ; 1 bytes @ 0x1F
  1993 ;;
  1994 ;;Main: autosize = 0, tempsize = 0, incstack = 0, save=0
  1995 ;;
  1996 ;; *************** function _main *****************
  1997 ;; Defined at:
  1998 ;;		line 22 in file "main.c"
  1999 ;; Parameters:    Size  Location     Type
  2000 ;;		None
  2001 ;; Auto vars:     Size  Location     Type
  2002 ;;		None
  2003 ;; Return value:  Size  Location     Type
  2004 ;;                  1    wreg      void 
  2005 ;; Registers used:
  2006 ;;		wreg, fsr0l, fsr0h, fsr1l, fsr1h, fsr2l, fsr2h, status,2, status,0, tblptrl, tblptrh, tblptru, cstack
  2007 ;; Tracked objects:
  2008 ;;		On entry : 0/0
  2009 ;;		On exit  : 0/0
  2010 ;;		Unchanged: 0/0
  2011 ;; Data sizes:     COMRAM   BANK0   BANK1   BANK2   BANK3   BANK4   BANK5
  2012 ;;      Params:         0       0       0       0       0       0       0
  2013 ;;      Locals:         0       0       0       0       0       0       0
  2014 ;;      Temps:          0       0       0       0       0       0       0
  2015 ;;      Totals:         0       0       0       0       0       0       0
  2016 ;;Total ram usage:        0 bytes
  2017 ;; Hardware stack levels required when called: 4
  2018 ;; This function calls:
  2019 ;;		_init_config
  2020 ;;		_process_canbus_data
  2021 ;; This function is called by:
  2022 ;;		Startup code after reset
  2023 ;; This function uses a non-reentrant model
  2024 ;;
  2025                           
  2026                           	psect	text0
  2027   002B06                     __ptext0:
  2028                           	callstack 0
  2029   002B06                     _main:
  2030                           	callstack 27
  2031   002B06                     
  2032                           ;main.c: 25:     init_config();
  2033   002B06  EC7C  F015         	call	_init_config	;wreg free
  2034   002B0A                     l1269:
  2035                           
  2036                           ;main.c: 29:     {;main.c: 31:         process_canbus_data();
  2037   002B0A  ECAF  F016         	call	_process_canbus_data	;wreg free
  2038   002B0E  EF85  F015         	goto	l1269
  2039   002B12  EFFE  F017         	goto	start
  2040   002B16                     __end_of_main:
  2041                           	callstack 0
  2042                           
  2043 ;; *************** function _process_canbus_data *****************
  2044 ;; Defined at:
  2045 ;;		line 96 in file "message_handler.c"
  2046 ;; Parameters:    Size  Location     Type
  2047 ;;		None
  2048 ;; Auto vars:     Size  Location     Type
  2049 ;;  data           10   18[COMRAM] unsigned char [10]
  2050 ;;  msg_id          2   28[COMRAM] unsigned short 
  2051 ;;  len             1   30[COMRAM] unsigned char 
  2052 ;; Return value:  Size  Location     Type
  2053 ;;                  1    wreg      void 
  2054 ;; Registers used:
  2055 ;;		wreg, fsr0l, fsr0h, fsr1l, fsr1h, fsr2l, fsr2h, status,2, status,0, tblptrl, tblptrh, tblptru, cstack
  2056 ;; Tracked objects:
  2057 ;;		On entry : 0/0
  2058 ;;		On exit  : 0/0
  2059 ;;		Unchanged: 0/0
  2060 ;; Data sizes:     COMRAM   BANK0   BANK1   BANK2   BANK3   BANK4   BANK5
  2061 ;;      Params:         0       0       0       0       0       0       0
  2062 ;;      Locals:        13       0       0       0       0       0       0
  2063 ;;      Temps:          0       0       0       0       0       0       0
  2064 ;;      Totals:        13       0       0       0       0       0       0
  2065 ;;Total ram usage:       13 bytes
  2066 ;; Hardware stack levels used: 1
  2067 ;; Hardware stack levels required when called: 3
  2068 ;; This function calls:
  2069 ;;		_can_receive
  2070 ;;		_handle_gear_data
  2071 ;;		_handle_indicator_data
  2072 ;;		_handle_rpm_data
  2073 ;;		_handle_speed_data
  2074 ;; This function is called by:
  2075 ;;		_main
  2076 ;; This function uses a non-reentrant model
  2077 ;;
  2078                           
  2079                           	psect	text1
  2080   002D5E                     __ptext1:
  2081                           	callstack 0
  2082   002D5E                     _process_canbus_data:
  2083                           	callstack 27
  2084   002D5E                     
  2085                           ;message_handler.c: 98:     uint16_t msg_id;;message_handler.c: 99:     uint8_t len;;mes
      +                          sage_handler.c: 100:     unsigned char data[10];;message_handler.c: 101:     can_receive
      +                          (&msg_id,data,&len);
  2086   002D5E  0E1D               	movlw	low process_canbus_data@msg_id
  2087   002D60  6E09               	movwf	can_receive@msg_id^0,c
  2088   002D62  0E13               	movlw	low process_canbus_data@data
  2089   002D64  6E0A               	movwf	can_receive@data^0,c
  2090   002D66  0E1F               	movlw	low process_canbus_data@len
  2091   002D68  6E0B               	movwf	can_receive@len^0,c
  2092   002D6A  EC64  F016         	call	_can_receive	;wreg free
  2093   002D6E                     
  2094                           ;message_handler.c: 102:     if (msg_id == 0x10)
  2095   002D6E  0E10               	movlw	16
  2096   002D70  181D               	xorwf	process_canbus_data@msg_id^0,w,c
  2097   002D72  101E               	iorwf	(process_canbus_data@msg_id+1)^0,w,c
  2098   002D74  A4D8               	btfss	status,2,c
  2099   002D76  EFBF  F016         	goto	u321
  2100   002D7A  EFC1  F016         	goto	u320
  2101   002D7E                     u321:
  2102   002D7E  EFC9  F016         	goto	l1253
  2103   002D82                     u320:
  2104   002D82                     
  2105                           ;message_handler.c: 103:     {;message_handler.c: 104:         handle_speed_data(data,le
      +                          n);
  2106   002D82  0E13               	movlw	low process_canbus_data@data
  2107   002D84  6E06               	movwf	handle_speed_data@data^0,c
  2108   002D86  C01F  F007         	movff	process_canbus_data@len,handle_speed_data@len
  2109   002D8A  ECC0  F015         	call	_handle_speed_data	;wreg free
  2110                           
  2111                           ;message_handler.c: 106:     }
  2112   002D8E  EFFF  F016         	goto	l183
  2113   002D92                     l1253:
  2114   002D92  0E30               	movlw	48
  2115   002D94  181D               	xorwf	process_canbus_data@msg_id^0,w,c
  2116   002D96  101E               	iorwf	(process_canbus_data@msg_id+1)^0,w,c
  2117   002D98  A4D8               	btfss	status,2,c
  2118   002D9A  EFD1  F016         	goto	u331
  2119   002D9E  EFD3  F016         	goto	u330
  2120   002DA2                     u331:
  2121   002DA2  EFDB  F016         	goto	l1257
  2122   002DA6                     u330:
  2123   002DA6                     
  2124                           ;message_handler.c: 108:     {;message_handler.c: 109:         handle_rpm_data(data,len)
      +                          ;
  2125   002DA6  0E13               	movlw	low process_canbus_data@data
  2126   002DA8  6E06               	movwf	handle_rpm_data@data^0,c
  2127   002DAA  C01F  F007         	movff	process_canbus_data@len,handle_rpm_data@len
  2128   002DAE  ECAA  F015         	call	_handle_rpm_data	;wreg free
  2129                           
  2130                           ;message_handler.c: 111:     }
  2131   002DB2  EFFF  F016         	goto	l183
  2132   002DB6                     l1257:
  2133   002DB6  0E20               	movlw	32
  2134   002DB8  181D               	xorwf	process_canbus_data@msg_id^0,w,c
  2135   002DBA  101E               	iorwf	(process_canbus_data@msg_id+1)^0,w,c
  2136   002DBC  A4D8               	btfss	status,2,c
  2137   002DBE  EFE3  F016         	goto	u341
  2138   002DC2  EFE5  F016         	goto	u340
  2139   002DC6                     u341:
  2140   002DC6  EFED  F016         	goto	l1261
  2141   002DCA                     u340:
  2142   002DCA                     
  2143                           ;message_handler.c: 113:     {;message_handler.c: 114:         handle_gear_data(data,len
      +                          );
  2144   002DCA  0E13               	movlw	low process_canbus_data@data
  2145   002DCC  6E06               	movwf	handle_gear_data@data^0,c
  2146   002DCE  C01F  F007         	movff	process_canbus_data@len,handle_gear_data@len
  2147   002DD2  EC94  F015         	call	_handle_gear_data	;wreg free
  2148                           
  2149                           ;message_handler.c: 116:     }
  2150   002DD6  EFFF  F016         	goto	l183
  2151   002DDA                     l1261:
  2152   002DDA  0E50               	movlw	80
  2153   002DDC  181D               	xorwf	process_canbus_data@msg_id^0,w,c
  2154   002DDE  101E               	iorwf	(process_canbus_data@msg_id+1)^0,w,c
  2155   002DE0  A4D8               	btfss	status,2,c
  2156   002DE2  EFF5  F016         	goto	u351
  2157   002DE6  EFF7  F016         	goto	u350
  2158   002DEA                     u351:
  2159   002DEA  EFFF  F016         	goto	l179
  2160   002DEE                     u350:
  2161   002DEE                     
  2162                           ;message_handler.c: 118:     {;message_handler.c: 119:         handle_indicator_data(dat
      +                          a, len);
  2163   002DEE  0E13               	movlw	low process_canbus_data@data
  2164   002DF0  6E06               	movwf	handle_indicator_data@data^0,c
  2165   002DF2  C01F  F007         	movff	process_canbus_data@len,handle_indicator_data@len
  2166   002DF6  EC53  F017         	call	_handle_indicator_data	;wreg free
  2167   002DFA  EFFF  F016         	goto	l183
  2168   002DFE                     l179:
  2169   002DFE                     l183:
  2170   002DFE  0012               	return		;funcret
  2171   002E00                     __end_of_process_canbus_data:
  2172                           	callstack 0
  2173                           
  2174 ;; *************** function _handle_speed_data *****************
  2175 ;; Defined at:
  2176 ;;		line 12 in file "message_handler.c"
  2177 ;; Parameters:    Size  Location     Type
  2178 ;;  data            1    5[COMRAM] PTR unsigned char 
  2179 ;;		 -> process_canbus_data@data(10), 
  2180 ;;  len             1    6[COMRAM] unsigned char 
  2181 ;; Auto vars:     Size  Location     Type
  2182 ;;		None
  2183 ;; Return value:  Size  Location     Type
  2184 ;;                  1    wreg      void 
  2185 ;; Registers used:
  2186 ;;		wreg, fsr0l, fsr0h, fsr2l, fsr2h, status,2, status,0, tblptrl, tblptrh, tblptru, cstack
  2187 ;; Tracked objects:
  2188 ;;		On entry : 0/0
  2189 ;;		On exit  : 0/0
  2190 ;;		Unchanged: 0/0
  2191 ;; Data sizes:     COMRAM   BANK0   BANK1   BANK2   BANK3   BANK4   BANK5
  2192 ;;      Params:         2       0       0       0       0       0       0
  2193 ;;      Locals:         0       0       0       0       0       0       0
  2194 ;;      Temps:          0       0       0       0       0       0       0
  2195 ;;      Totals:         2       0       0       0       0       0       0
  2196 ;;Total ram usage:        2 bytes
  2197 ;; Hardware stack levels used: 1
  2198 ;; Hardware stack levels required when called: 2
  2199 ;; This function calls:
  2200 ;;		_clcd_print
  2201 ;; This function is called by:
  2202 ;;		_process_canbus_data
  2203 ;; This function uses a non-reentrant model
  2204 ;;
  2205                           
  2206                           	psect	text2
  2207   002B80                     __ptext2:
  2208                           	callstack 0
  2209   002B80                     _handle_speed_data:
  2210                           	callstack 27
  2211   002B80                     
  2212                           ;message_handler.c: 12: void handle_speed_data(uint8_t *data, uint8_t len);message_handl
      +                          er.c: 13: {;message_handler.c: 15:     clcd_print("SPD:",(0x80 + (0)));
  2213   002B80  0EE4               	movlw	low STR_1
  2214   002B82  6E03               	movwf	clcd_print@data^0,c
  2215   002B84  0E2F               	movlw	high STR_1
  2216   002B86  6E04               	movwf	(clcd_print@data+1)^0,c
  2217   002B88  0E80               	movlw	128
  2218   002B8A  6E05               	movwf	clcd_print@addr^0,c
  2219   002B8C  EC2E  F016         	call	_clcd_print	;wreg free
  2220   002B90                     
  2221                           ;message_handler.c: 17:     data[2] = '\0';
  2222   002B90  5006               	movf	handle_speed_data@data^0,w,c
  2223   002B92  6ED9               	movwf	fsr2l,c
  2224   002B94  6ADA               	clrf	fsr2h,c
  2225   002B96  0E02               	movlw	2
  2226   002B98  26D9               	addwf	fsr2l,f,c
  2227   002B9A  6ADF               	clrf	indf2,c
  2228   002B9C                     
  2229                           ;message_handler.c: 18:     clcd_print(data, (0x80 + (4)));
  2230   002B9C  C006  F003         	movff	handle_speed_data@data,clcd_print@data
  2231   002BA0  6A04               	clrf	(clcd_print@data+1)^0,c
  2232   002BA2  0E84               	movlw	132
  2233   002BA4  6E05               	movwf	clcd_print@addr^0,c
  2234   002BA6  EC2E  F016         	call	_clcd_print	;wreg free
  2235   002BAA  0012               	return		;funcret
  2236   002BAC                     __end_of_handle_speed_data:
  2237                           	callstack 0
  2238                           
  2239 ;; *************** function _handle_rpm_data *****************
  2240 ;; Defined at:
  2241 ;;		line 30 in file "message_handler.c"
  2242 ;; Parameters:    Size  Location     Type
  2243 ;;  data            1    5[COMRAM] PTR unsigned char 
  2244 ;;		 -> process_canbus_data@data(10), 
  2245 ;;  len             1    6[COMRAM] unsigned char 
  2246 ;; Auto vars:     Size  Location     Type
  2247 ;;		None
  2248 ;; Return value:  Size  Location     Type
  2249 ;;                  1    wreg      void 
  2250 ;; Registers used:
  2251 ;;		wreg, fsr0l, fsr0h, fsr2l, fsr2h, status,2, status,0, tblptrl, tblptrh, tblptru, cstack
  2252 ;; Tracked objects:
  2253 ;;		On entry : 0/0
  2254 ;;		On exit  : 0/0
  2255 ;;		Unchanged: 0/0
  2256 ;; Data sizes:     COMRAM   BANK0   BANK1   BANK2   BANK3   BANK4   BANK5
  2257 ;;      Params:         2       0       0       0       0       0       0
  2258 ;;      Locals:         0       0       0       0       0       0       0
  2259 ;;      Temps:          0       0       0       0       0       0       0
  2260 ;;      Totals:         2       0       0       0       0       0       0
  2261 ;;Total ram usage:        2 bytes
  2262 ;; Hardware stack levels used: 1
  2263 ;; Hardware stack levels required when called: 2
  2264 ;; This function calls:
  2265 ;;		_clcd_print
  2266 ;; This function is called by:
  2267 ;;		_process_canbus_data
  2268 ;; This function uses a non-reentrant model
  2269 ;;
  2270                           
  2271                           	psect	text3
  2272   002B54                     __ptext3:
  2273                           	callstack 0
  2274   002B54                     _handle_rpm_data:
  2275                           	callstack 27
  2276   002B54                     
  2277                           ;message_handler.c: 30: void handle_rpm_data(uint8_t *data, uint8_t len);message_handler
      +                          .c: 31: {;message_handler.c: 33:     clcd_print("RPM:",(0x80 + (8)));
  2278   002B54  0EE9               	movlw	low STR_3
  2279   002B56  6E03               	movwf	clcd_print@data^0,c
  2280   002B58  0E2F               	movlw	high STR_3
  2281   002B5A  6E04               	movwf	(clcd_print@data+1)^0,c
  2282   002B5C  0E88               	movlw	136
  2283   002B5E  6E05               	movwf	clcd_print@addr^0,c
  2284   002B60  EC2E  F016         	call	_clcd_print	;wreg free
  2285   002B64                     
  2286                           ;message_handler.c: 35:     data[4] = '\0';
  2287   002B64  5006               	movf	handle_rpm_data@data^0,w,c
  2288   002B66  6ED9               	movwf	fsr2l,c
  2289   002B68  6ADA               	clrf	fsr2h,c
  2290   002B6A  0E04               	movlw	4
  2291   002B6C  26D9               	addwf	fsr2l,f,c
  2292   002B6E  6ADF               	clrf	indf2,c
  2293   002B70                     
  2294                           ;message_handler.c: 36:     clcd_print(data, (0x80 + (12)));
  2295   002B70  C006  F003         	movff	handle_rpm_data@data,clcd_print@data
  2296   002B74  6A04               	clrf	(clcd_print@data+1)^0,c
  2297   002B76  0E8C               	movlw	140
  2298   002B78  6E05               	movwf	clcd_print@addr^0,c
  2299   002B7A  EC2E  F016         	call	_clcd_print	;wreg free
  2300   002B7E  0012               	return		;funcret
  2301   002B80                     __end_of_handle_rpm_data:
  2302                           	callstack 0
  2303                           
  2304 ;; *************** function _handle_indicator_data *****************
  2305 ;; Defined at:
  2306 ;;		line 39 in file "message_handler.c"
  2307 ;; Parameters:    Size  Location     Type
  2308 ;;  data            1    5[COMRAM] PTR unsigned char 
  2309 ;;		 -> process_canbus_data@data(10), 
  2310 ;;  len             1    6[COMRAM] unsigned char 
  2311 ;; Auto vars:     Size  Location     Type
  2312 ;;		None
  2313 ;; Return value:  Size  Location     Type
  2314 ;;                  1    wreg      void 
  2315 ;; Registers used:
  2316 ;;		wreg, fsr0l, fsr0h, fsr2l, fsr2h, status,2, status,0, tblptrl, tblptrh, tblptru, cstack
  2317 ;; Tracked objects:
  2318 ;;		On entry : 0/0
  2319 ;;		On exit  : 0/0
  2320 ;;		Unchanged: 0/0
  2321 ;; Data sizes:     COMRAM   BANK0   BANK1   BANK2   BANK3   BANK4   BANK5
  2322 ;;      Params:         2       0       0       0       0       0       0
  2323 ;;      Locals:         0       0       0       0       0       0       0
  2324 ;;      Temps:          0       0       0       0       0       0       0
  2325 ;;      Totals:         2       0       0       0       0       0       0
  2326 ;;Total ram usage:        2 bytes
  2327 ;; Hardware stack levels used: 1
  2328 ;; Hardware stack levels required when called: 2
  2329 ;; This function calls:
  2330 ;;		_clcd_print
  2331 ;;		_clcd_write
  2332 ;; This function is called by:
  2333 ;;		_process_canbus_data
  2334 ;; This function uses a non-reentrant model
  2335 ;;
  2336                           
  2337                           	psect	text4
  2338   002EA6                     __ptext4:
  2339                           	callstack 0
  2340   002EA6                     _handle_indicator_data:
  2341                           	callstack 27
  2342   002EA6                     
  2343                           ;message_handler.c: 39: void handle_indicator_data(uint8_t *data, uint8_t len);message_h
      +                          andler.c: 40: {;message_handler.c: 42:     clcd_print("IND:",(0xC0 + (8)));
  2344   002EA6  0EDF               	movlw	low STR_4
  2345   002EA8  6E03               	movwf	clcd_print@data^0,c
  2346   002EAA  0E2F               	movlw	high STR_4
  2347   002EAC  6E04               	movwf	(clcd_print@data+1)^0,c
  2348   002EAE  0EC8               	movlw	200
  2349   002EB0  6E05               	movwf	clcd_print@addr^0,c
  2350   002EB2  EC2E  F016         	call	_clcd_print	;wreg free
  2351                           
  2352                           ;message_handler.c: 43:     static unsigned int delay = 0;;message_handler.c: 45:     sw
      +                          itch (data[0])
  2353   002EB6  EFD9  F017         	goto	l1239
  2354   002EBA                     l1197:
  2355                           
  2356                           ;message_handler.c: 48:             if (delay < 200)
  2357   002EBA  5021               	movf	(handle_indicator_data@delay+1)^0,w,c
  2358   002EBC  E107               	bnz	u281
  2359   002EBE  0EC8               	movlw	200
  2360   002EC0  5C20               	subwf	handle_indicator_data@delay^0,w,c
  2361   002EC2  B0D8               	btfsc	status,0,c
  2362   002EC4  EF66  F017         	goto	u281
  2363   002EC8  EF68  F017         	goto	u280
  2364   002ECC                     u281:
  2365   002ECC  EF78  F017         	goto	l1203
  2366   002ED0                     u280:
  2367   002ED0                     
  2368                           ;message_handler.c: 49:             {;message_handler.c: 50:                 (PORTB = PO
      +                          RTB | 0x03);
  2369   002ED0  5081               	movf	129,w,c	;volatile
  2370   002ED2  0903               	iorlw	3
  2371   002ED4  6E81               	movwf	129,c	;volatile
  2372                           
  2373                           ;message_handler.c: 51:                 (PORTB = PORTB & ~0xC0);
  2374   002ED6  5081               	movf	129,w,c	;volatile
  2375   002ED8  0B3F               	andlw	63
  2376   002EDA  6E81               	movwf	129,c	;volatile
  2377   002EDC                     
  2378                           ;message_handler.c: 52:                 clcd_print("-> ", (0xC0 + (12)));
  2379   002EDC  0EF2               	movlw	low STR_5
  2380   002EDE  6E03               	movwf	clcd_print@data^0,c
  2381   002EE0  0E2F               	movlw	high STR_5
  2382   002EE2  6E04               	movwf	(clcd_print@data+1)^0,c
  2383   002EE4  0ECC               	movlw	204
  2384   002EE6  6E05               	movwf	clcd_print@addr^0,c
  2385   002EE8  EC2E  F016         	call	_clcd_print	;wreg free
  2386                           
  2387                           ;message_handler.c: 53:             }
  2388   002EEC  EF91  F017         	goto	l1211
  2389   002EF0                     l1203:
  2390   002EF0  0E90               	movlw	144
  2391   002EF2  5C20               	subwf	handle_indicator_data@delay^0,w,c
  2392   002EF4  0E01               	movlw	1
  2393   002EF6  5821               	subwfb	(handle_indicator_data@delay+1)^0,w,c
  2394   002EF8  B0D8               	btfsc	status,0,c
  2395   002EFA  EF81  F017         	goto	u291
  2396   002EFE  EF83  F017         	goto	u290
  2397   002F02                     u291:
  2398   002F02  EF8D  F017         	goto	l1209
  2399   002F06                     u290:
  2400   002F06                     
  2401                           ;message_handler.c: 55:             {;message_handler.c: 56:                 (PORTB = PO
      +                          RTB & ~0x03);
  2402   002F06  5081               	movf	129,w,c	;volatile
  2403   002F08  0BFC               	andlw	252
  2404   002F0A  6E81               	movwf	129,c	;volatile
  2405   002F0C                     
  2406                           ;message_handler.c: 57:                 clcd_write(0x01, 0);
  2407   002F0C  0E00               	movlw	0
  2408   002F0E  6E01               	movwf	clcd_write@control_bit^0,c
  2409   002F10  0E01               	movlw	1
  2410   002F12  ECD6  F015         	call	_clcd_write
  2411                           
  2412                           ;message_handler.c: 58:             }
  2413   002F16  EF91  F017         	goto	l1211
  2414   002F1A                     l1209:
  2415                           
  2416                           ;message_handler.c: 60:             {;message_handler.c: 61:                 delay = 0;
  2417   002F1A  0E00               	movlw	0
  2418   002F1C  6E21               	movwf	(handle_indicator_data@delay+1)^0,c
  2419   002F1E  0E00               	movlw	0
  2420   002F20  6E20               	movwf	handle_indicator_data@delay^0,c
  2421   002F22                     l1211:
  2422                           
  2423                           ;message_handler.c: 63:             delay++;
  2424   002F22  4A20               	infsnz	handle_indicator_data@delay^0,f,c
  2425   002F24  2A21               	incf	(handle_indicator_data@delay+1)^0,f,c
  2426                           
  2427                           ;message_handler.c: 64:             break;
  2428   002F26  EFEB  F017         	goto	l173
  2429   002F2A                     l1213:
  2430                           
  2431                           ;message_handler.c: 67:             if (delay < 200)
  2432   002F2A  5021               	movf	(handle_indicator_data@delay+1)^0,w,c
  2433   002F2C  E107               	bnz	u301
  2434   002F2E  0EC8               	movlw	200
  2435   002F30  5C20               	subwf	handle_indicator_data@delay^0,w,c
  2436   002F32  B0D8               	btfsc	status,0,c
  2437   002F34  EF9E  F017         	goto	u301
  2438   002F38  EFA0  F017         	goto	u300
  2439   002F3C                     u301:
  2440   002F3C  EFB0  F017         	goto	l1219
  2441   002F40                     u300:
  2442   002F40                     
  2443                           ;message_handler.c: 68:             {;message_handler.c: 69:                 (PORTB = PO
      +                          RTB | 0xC0);
  2444   002F40  5081               	movf	129,w,c	;volatile
  2445   002F42  09C0               	iorlw	192
  2446   002F44  6E81               	movwf	129,c	;volatile
  2447                           
  2448                           ;message_handler.c: 70:                 (PORTB = PORTB & ~0x03);
  2449   002F46  5081               	movf	129,w,c	;volatile
  2450   002F48  0BFC               	andlw	252
  2451   002F4A  6E81               	movwf	129,c	;volatile
  2452   002F4C                     
  2453                           ;message_handler.c: 71:                 clcd_print("<- ", (0xC0 + (12)));
  2454   002F4C  0EEE               	movlw	low STR_6
  2455   002F4E  6E03               	movwf	clcd_print@data^0,c
  2456   002F50  0E2F               	movlw	high STR_6
  2457   002F52  6E04               	movwf	(clcd_print@data+1)^0,c
  2458   002F54  0ECC               	movlw	204
  2459   002F56  6E05               	movwf	clcd_print@addr^0,c
  2460   002F58  EC2E  F016         	call	_clcd_print	;wreg free
  2461                           
  2462                           ;message_handler.c: 72:             }
  2463   002F5C  EF91  F017         	goto	l1211
  2464   002F60                     l1219:
  2465   002F60  0E90               	movlw	144
  2466   002F62  5C20               	subwf	handle_indicator_data@delay^0,w,c
  2467   002F64  0E01               	movlw	1
  2468   002F66  5821               	subwfb	(handle_indicator_data@delay+1)^0,w,c
  2469   002F68  B0D8               	btfsc	status,0,c
  2470   002F6A  EFB9  F017         	goto	u311
  2471   002F6E  EFBB  F017         	goto	u310
  2472   002F72                     u311:
  2473   002F72  EF8D  F017         	goto	l1209
  2474   002F76                     u310:
  2475   002F76                     
  2476                           ;message_handler.c: 74:             {;message_handler.c: 75:                 (PORTB = PO
      +                          RTB & ~0xC0);
  2477   002F76  5081               	movf	129,w,c	;volatile
  2478   002F78  0B3F               	andlw	63
  2479   002F7A  6E81               	movwf	129,c	;volatile
  2480   002F7C                     
  2481                           ;message_handler.c: 76:                 clcd_write(0x01, 0);
  2482   002F7C  0E00               	movlw	0
  2483   002F7E  6E01               	movwf	clcd_write@control_bit^0,c
  2484   002F80  0E01               	movlw	1
  2485   002F82  ECD6  F015         	call	_clcd_write
  2486                           
  2487                           ;message_handler.c: 77:             }
  2488   002F86  EF91  F017         	goto	l1211
  2489   002F8A                     l1229:
  2490                           
  2491                           ;message_handler.c: 86:             clcd_print("OFF", (0xC0 + (12)));
  2492   002F8A  0EF6               	movlw	low STR_7
  2493   002F8C  6E03               	movwf	clcd_print@data^0,c
  2494   002F8E  0E2F               	movlw	high STR_7
  2495   002F90  6E04               	movwf	(clcd_print@data+1)^0,c
  2496   002F92  0ECC               	movlw	204
  2497   002F94  6E05               	movwf	clcd_print@addr^0,c
  2498   002F96  EC2E  F016         	call	_clcd_print	;wreg free
  2499   002F9A                     
  2500                           ;message_handler.c: 87:             (PORTB = PORTB & ~0x03);
  2501   002F9A  5081               	movf	129,w,c	;volatile
  2502   002F9C  0BFC               	andlw	252
  2503   002F9E  6E81               	movwf	129,c	;volatile
  2504   002FA0                     
  2505                           ;message_handler.c: 88:             (PORTB = PORTB & ~0xC0);
  2506   002FA0  5081               	movf	129,w,c	;volatile
  2507   002FA2  0B3F               	andlw	63
  2508   002FA4  6E81               	movwf	129,c	;volatile
  2509   002FA6                     
  2510                           ;message_handler.c: 89:             delay = 0;
  2511   002FA6  0E00               	movlw	0
  2512   002FA8  6E21               	movwf	(handle_indicator_data@delay+1)^0,c
  2513   002FAA  0E00               	movlw	0
  2514   002FAC  6E20               	movwf	handle_indicator_data@delay^0,c
  2515                           
  2516                           ;message_handler.c: 90:             break;
  2517   002FAE  EFEB  F017         	goto	l173
  2518   002FB2                     l1239:
  2519   002FB2  5006               	movf	handle_indicator_data@data^0,w,c
  2520   002FB4  6ED9               	movwf	fsr2l,c
  2521   002FB6  6ADA               	clrf	fsr2h,c
  2522   002FB8  50DF               	movf	indf2,w,c
  2523                           
  2524                           ; Switch size 1, requested type "simple"
  2525                           ; Number of cases is 3, Range of values is 0 to 2
  2526                           ; switch strategies available:
  2527                           ; Name         Instructions Cycles
  2528                           ; simple_byte           10     6 (average)
  2529                           ;	Chosen strategy is simple_byte
  2530   002FBA  0A00               	xorlw	0	; case 0
  2531   002FBC  B4D8               	btfsc	status,2,c
  2532   002FBE  EFC5  F017         	goto	l1229
  2533   002FC2  0A01               	xorlw	1	; case 1
  2534   002FC4  B4D8               	btfsc	status,2,c
  2535   002FC6  EF5D  F017         	goto	l1197
  2536   002FCA  0A03               	xorlw	3	; case 2
  2537   002FCC  B4D8               	btfsc	status,2,c
  2538   002FCE  EF95  F017         	goto	l1213
  2539   002FD2  EFEB  F017         	goto	l173
  2540   002FD6                     l173:
  2541   002FD6  0012               	return		;funcret
  2542   002FD8                     __end_of_handle_indicator_data:
  2543                           	callstack 0
  2544                           
  2545 ;; *************** function _handle_gear_data *****************
  2546 ;; Defined at:
  2547 ;;		line 21 in file "message_handler.c"
  2548 ;; Parameters:    Size  Location     Type
  2549 ;;  data            1    5[COMRAM] PTR unsigned char 
  2550 ;;		 -> process_canbus_data@data(10), 
  2551 ;;  len             1    6[COMRAM] unsigned char 
  2552 ;; Auto vars:     Size  Location     Type
  2553 ;;		None
  2554 ;; Return value:  Size  Location     Type
  2555 ;;                  1    wreg      void 
  2556 ;; Registers used:
  2557 ;;		wreg, fsr0l, fsr0h, fsr2l, fsr2h, status,2, status,0, tblptrl, tblptrh, tblptru, cstack
  2558 ;; Tracked objects:
  2559 ;;		On entry : 0/0
  2560 ;;		On exit  : 0/0
  2561 ;;		Unchanged: 0/0
  2562 ;; Data sizes:     COMRAM   BANK0   BANK1   BANK2   BANK3   BANK4   BANK5
  2563 ;;      Params:         2       0       0       0       0       0       0
  2564 ;;      Locals:         0       0       0       0       0       0       0
  2565 ;;      Temps:          0       0       0       0       0       0       0
  2566 ;;      Totals:         2       0       0       0       0       0       0
  2567 ;;Total ram usage:        2 bytes
  2568 ;; Hardware stack levels used: 1
  2569 ;; Hardware stack levels required when called: 2
  2570 ;; This function calls:
  2571 ;;		_clcd_print
  2572 ;; This function is called by:
  2573 ;;		_process_canbus_data
  2574 ;; This function uses a non-reentrant model
  2575 ;;
  2576                           
  2577                           	psect	text5
  2578   002B28                     __ptext5:
  2579                           	callstack 0
  2580   002B28                     _handle_gear_data:
  2581                           	callstack 27
  2582   002B28                     
  2583                           ;message_handler.c: 21: void handle_gear_data(uint8_t *data, uint8_t len);message_handle
      +                          r.c: 22: {;message_handler.c: 24:      clcd_print("GEAR:",(0xC0 + (0)));
  2584   002B28  0ED9               	movlw	low STR_2
  2585   002B2A  6E03               	movwf	clcd_print@data^0,c
  2586   002B2C  0E2F               	movlw	high STR_2
  2587   002B2E  6E04               	movwf	(clcd_print@data+1)^0,c
  2588   002B30  0EC0               	movlw	192
  2589   002B32  6E05               	movwf	clcd_print@addr^0,c
  2590   002B34  EC2E  F016         	call	_clcd_print	;wreg free
  2591   002B38                     
  2592                           ;message_handler.c: 26:     data[2] = '\0';
  2593   002B38  5006               	movf	handle_gear_data@data^0,w,c
  2594   002B3A  6ED9               	movwf	fsr2l,c
  2595   002B3C  6ADA               	clrf	fsr2h,c
  2596   002B3E  0E02               	movlw	2
  2597   002B40  26D9               	addwf	fsr2l,f,c
  2598   002B42  6ADF               	clrf	indf2,c
  2599   002B44                     
  2600                           ;message_handler.c: 27:     clcd_print(data, (0xC0 + (5)));
  2601   002B44  C006  F003         	movff	handle_gear_data@data,clcd_print@data
  2602   002B48  6A04               	clrf	(clcd_print@data+1)^0,c
  2603   002B4A  0EC5               	movlw	197
  2604   002B4C  6E05               	movwf	clcd_print@addr^0,c
  2605   002B4E  EC2E  F016         	call	_clcd_print	;wreg free
  2606   002B52  0012               	return		;funcret
  2607   002B54                     __end_of_handle_gear_data:
  2608                           	callstack 0
  2609                           
  2610 ;; *************** function _clcd_print *****************
  2611 ;; Defined at:
  2612 ;;		line 58 in file "clcd.c"
  2613 ;; Parameters:    Size  Location     Type
  2614 ;;  data            2    2[COMRAM] PTR const unsigned char 
  2615 ;;		 -> process_canbus_data@data(10), STR_7(4), STR_6(4), STR_5(4), 
  2616 ;;		 -> STR_4(5), STR_3(5), STR_2(6), STR_1(5), 
  2617 ;;  addr            1    4[COMRAM] unsigned char 
  2618 ;; Auto vars:     Size  Location     Type
  2619 ;;		None
  2620 ;; Return value:  Size  Location     Type
  2621 ;;                  1    wreg      void 
  2622 ;; Registers used:
  2623 ;;		wreg, fsr0l, fsr0h, status,2, status,0, tblptrl, tblptrh, tblptru, cstack
  2624 ;; Tracked objects:
  2625 ;;		On entry : 0/0
  2626 ;;		On exit  : 0/0
  2627 ;;		Unchanged: 0/0
  2628 ;; Data sizes:     COMRAM   BANK0   BANK1   BANK2   BANK3   BANK4   BANK5
  2629 ;;      Params:         3       0       0       0       0       0       0
  2630 ;;      Locals:         0       0       0       0       0       0       0
  2631 ;;      Temps:          0       0       0       0       0       0       0
  2632 ;;      Totals:         3       0       0       0       0       0       0
  2633 ;;Total ram usage:        3 bytes
  2634 ;; Hardware stack levels used: 1
  2635 ;; Hardware stack levels required when called: 1
  2636 ;; This function calls:
  2637 ;;		_clcd_write
  2638 ;; This function is called by:
  2639 ;;		_handle_speed_data
  2640 ;;		_handle_gear_data
  2641 ;;		_handle_rpm_data
  2642 ;;		_handle_indicator_data
  2643 ;; This function uses a non-reentrant model
  2644 ;;
  2645                           
  2646                           	psect	text6
  2647   002C5C                     __ptext6:
  2648                           	callstack 0
  2649   002C5C                     _clcd_print:
  2650                           	callstack 27
  2651   002C5C                     
  2652                           ;clcd.c: 58: void clcd_print(const unsigned char *data, unsigned char addr);clcd.c: 59: 
      +                          {;clcd.c: 60:  clcd_write(addr, 0);
  2653   002C5C  0E00               	movlw	0
  2654   002C5E  6E01               	movwf	clcd_write@control_bit^0,c
  2655   002C60  5005               	movf	clcd_print@addr^0,w,c
  2656   002C62  ECD6  F015         	call	_clcd_write
  2657                           
  2658                           ;clcd.c: 61:  while (*data != '\0')
  2659   002C66  EF4B  F016         	goto	l1113
  2660   002C6A                     l1109:
  2661                           
  2662                           ;clcd.c: 62:  {;clcd.c: 63:   clcd_write(*data++, 1);
  2663   002C6A  0E01               	movlw	1
  2664   002C6C  6E01               	movwf	clcd_write@control_bit^0,c
  2665   002C6E  C003  FFF6         	movff	clcd_print@data,tblptrl
  2666   002C72  C004  FFF7         	movff	clcd_print@data+1,tblptrh
  2667   002C76  6AF8               	clrf	tblptru,c
  2668   002C78  0E05               	movlw	(high __ramtop+-1)
  2669   002C7A  64F7               	cpfsgt	tblptrh,c
  2670   002C7C  D003               	bra	u237
  2671   002C7E  0008               	tblrd		*
  2672   002C80  50F5               	movf	tablat,w,c
  2673   002C82  D005               	bra	u230
  2674   002C84                     u237:
  2675   002C84  CFF6 FFE9          	movff	tblptrl,fsr0l
  2676   002C88  CFF7 FFEA          	movff	tblptrh,fsr0h
  2677   002C8C  50EF               	movf	indf0,w,c
  2678   002C8E                     u230:
  2679   002C8E  ECD6  F015         	call	_clcd_write
  2680   002C92  4A03               	infsnz	clcd_print@data^0,f,c
  2681   002C94  2A04               	incf	(clcd_print@data+1)^0,f,c
  2682   002C96                     l1113:
  2683                           
  2684                           ;clcd.c: 61:  while (*data != '\0')
  2685   002C96  C003  FFF6         	movff	clcd_print@data,tblptrl
  2686   002C9A  C004  FFF7         	movff	clcd_print@data+1,tblptrh
  2687   002C9E  6AF8               	clrf	tblptru,c
  2688   002CA0  0E05               	movlw	(high __ramtop+-1)
  2689   002CA2  64F7               	cpfsgt	tblptrh,c
  2690   002CA4  D003               	bra	u247
  2691   002CA6  0008               	tblrd		*
  2692   002CA8  50F5               	movf	tablat,w,c
  2693   002CAA  D005               	bra	u240
  2694   002CAC                     u247:
  2695   002CAC  CFF6 FFE9          	movff	tblptrl,fsr0l
  2696   002CB0  CFF7 FFEA          	movff	tblptrh,fsr0h
  2697   002CB4  50EF               	movf	indf0,w,c
  2698   002CB6                     u240:
  2699   002CB6  0900               	iorlw	0
  2700   002CB8  A4D8               	btfss	status,2,c
  2701   002CBA  EF61  F016         	goto	u251
  2702   002CBE  EF63  F016         	goto	u250
  2703   002CC2                     u251:
  2704   002CC2  EF35  F016         	goto	l1109
  2705   002CC6                     u250:
  2706   002CC6  0012               	return		;funcret
  2707   002CC8                     __end_of_clcd_print:
  2708                           	callstack 0
  2709                           
  2710 ;; *************** function _can_receive *****************
  2711 ;; Defined at:
  2712 ;;		line 89 in file "can.c"
  2713 ;; Parameters:    Size  Location     Type
  2714 ;;  msg_id          1    8[COMRAM] PTR unsigned short 
  2715 ;;		 -> process_canbus_data@msg_id(2), 
  2716 ;;  data            1    9[COMRAM] PTR unsigned char 
  2717 ;;		 -> process_canbus_data@data(10), 
  2718 ;;  len             1   10[COMRAM] PTR unsigned char 
  2719 ;;		 -> process_canbus_data@len(1), 
  2720 ;; Auto vars:     Size  Location     Type
  2721 ;;  i               2   16[COMRAM] int 
  2722 ;;  ptr             2   14[COMRAM] PTR unsigned char 
  2723 ;;		 -> RXB0D0(1), 
  2724 ;; Return value:  Size  Location     Type
  2725 ;;                  1    wreg      void 
  2726 ;; Registers used:
  2727 ;;		wreg, fsr1l, fsr1h, fsr2l, fsr2h, status,2, status,0, cstack
  2728 ;; Tracked objects:
  2729 ;;		On entry : 0/0
  2730 ;;		On exit  : 0/0
  2731 ;;		Unchanged: 0/0
  2732 ;; Data sizes:     COMRAM   BANK0   BANK1   BANK2   BANK3   BANK4   BANK5
  2733 ;;      Params:         3       0       0       0       0       0       0
  2734 ;;      Locals:         4       0       0       0       0       0       0
  2735 ;;      Temps:          3       0       0       0       0       0       0
  2736 ;;      Totals:        10       0       0       0       0       0       0
  2737 ;;Total ram usage:       10 bytes
  2738 ;; Hardware stack levels used: 1
  2739 ;; Hardware stack levels required when called: 1
  2740 ;; This function calls:
  2741 ;;		_get_msg_id_std
  2742 ;; This function is called by:
  2743 ;;		_process_canbus_data
  2744 ;; This function uses a non-reentrant model
  2745 ;;
  2746                           
  2747                           	psect	text7
  2748   002CC8                     __ptext7:
  2749                           	callstack 0
  2750   002CC8                     _can_receive:
  2751                           	callstack 28
  2752   002CC8                     
  2753                           ;can.c: 90:     uint8_t *ptr;;can.c: 92:     if (RXB0FUL) {
  2754   002CC8  AE60               	btfss	3936,7,c	;volatile
  2755   002CCA  EF69  F016         	goto	u261
  2756   002CCE  EF6B  F016         	goto	u260
  2757   002CD2                     u261:
  2758   002CD2  EFAA  F016         	goto	l1175
  2759   002CD6                     u260:
  2760   002CD6                     
  2761                           ;can.c: 94:         *msg_id = get_msg_id_std();
  2762   002CD6  ECF3  F015         	call	_get_msg_id_std	;wreg free
  2763   002CDA  5009               	movf	can_receive@msg_id^0,w,c
  2764   002CDC  6ED9               	movwf	fsr2l,c
  2765   002CDE  6ADA               	clrf	fsr2h,c
  2766   002CE0  C001  FFDE         	movff	?_get_msg_id_std,postinc2
  2767   002CE4  C002  FFDD         	movff	?_get_msg_id_std+1,postdec2
  2768   002CE8                     
  2769                           ;can.c: 96:         *len = RXB0DLC;
  2770   002CE8  500B               	movf	can_receive@len^0,w,c
  2771   002CEA  6ED9               	movwf	fsr2l,c
  2772   002CEC  6ADA               	clrf	fsr2h,c
  2773   002CEE  CF65 FFDF          	movff	3941,indf2	;volatile
  2774   002CF2                     
  2775                           ;can.c: 98:         ptr = (uint8_t *) & RXB0D0;
  2776   002CF2  0E66               	movlw	102
  2777   002CF4  6E0F               	movwf	can_receive@ptr^0,c
  2778   002CF6  0E0F               	movlw	15
  2779   002CF8  6E10               	movwf	(can_receive@ptr+1)^0,c
  2780   002CFA                     
  2781                           ;can.c: 100:         for (int i = 0; i < *len; i++) {
  2782   002CFA  0E00               	movlw	0
  2783   002CFC  6E12               	movwf	(can_receive@i+1)^0,c
  2784   002CFE  0E00               	movlw	0
  2785   002D00  6E11               	movwf	can_receive@i^0,c
  2786   002D02  EF91  F016         	goto	l1173
  2787   002D06                     l1169:
  2788                           
  2789                           ;can.c: 101:             data[i] = ptr[i];
  2790   002D06  5011               	movf	can_receive@i^0,w,c
  2791   002D08  240F               	addwf	can_receive@ptr^0,w,c
  2792   002D0A  6ED9               	movwf	fsr2l,c
  2793   002D0C  5012               	movf	(can_receive@i+1)^0,w,c
  2794   002D0E  2010               	addwfc	(can_receive@ptr+1)^0,w,c
  2795   002D10  6EDA               	movwf	fsr2h,c
  2796   002D12  500A               	movf	can_receive@data^0,w,c
  2797   002D14  2411               	addwf	can_receive@i^0,w,c
  2798   002D16  6EE1               	movwf	fsr1l,c
  2799   002D18  6AE2               	clrf	fsr1h,c
  2800   002D1A  CFDF FFE7          	movff	indf2,indf1
  2801   002D1E                     
  2802                           ;can.c: 102:         }
  2803   002D1E  4A11               	infsnz	can_receive@i^0,f,c
  2804   002D20  2A12               	incf	(can_receive@i+1)^0,f,c
  2805   002D22                     l1173:
  2806   002D22  500B               	movf	can_receive@len^0,w,c
  2807   002D24  6ED9               	movwf	fsr2l,c
  2808   002D26  6ADA               	clrf	fsr2h,c
  2809   002D28  50DF               	movf	indf2,w,c
  2810   002D2A  6E0C               	movwf	??_can_receive^0,c
  2811   002D2C  6A0D               	clrf	(??_can_receive+1)^0,c
  2812   002D2E  500C               	movf	??_can_receive^0,w,c
  2813   002D30  5C11               	subwf	can_receive@i^0,w,c
  2814   002D32  5012               	movf	(can_receive@i+1)^0,w,c
  2815   002D34  0A80               	xorlw	128
  2816   002D36  6E0E               	movwf	(??_can_receive+2)^0,c
  2817   002D38  500D               	movf	(??_can_receive+1)^0,w,c
  2818   002D3A  0A80               	xorlw	128
  2819   002D3C  580E               	subwfb	(??_can_receive+2)^0,w,c
  2820   002D3E  A0D8               	btfss	status,0,c
  2821   002D40  EFA4  F016         	goto	u271
  2822   002D44  EFA6  F016         	goto	u270
  2823   002D48                     u271:
  2824   002D48  EF83  F016         	goto	l1169
  2825   002D4C                     u270:
  2826   002D4C                     
  2827                           ;can.c: 104:         RXB0FUL = 0;
  2828   002D4C  9E60               	bcf	3936,7,c	;volatile
  2829                           
  2830                           ;can.c: 105:         RXB0IF = 0;
  2831   002D4E  90A4               	bcf	4004,0,c	;volatile
  2832                           
  2833                           ;can.c: 106:     }
  2834   002D50  EFAE  F016         	goto	l109
  2835   002D54                     l1175:
  2836                           
  2837                           ;can.c: 109:     *len = 0;
  2838   002D54  500B               	movf	can_receive@len^0,w,c
  2839   002D56  6ED9               	movwf	fsr2l,c
  2840   002D58  6ADA               	clrf	fsr2h,c
  2841   002D5A  6ADF               	clrf	indf2,c
  2842   002D5C                     l109:
  2843   002D5C  0012               	return		;funcret
  2844   002D5E                     __end_of_can_receive:
  2845                           	callstack 0
  2846                           
  2847 ;; *************** function _get_msg_id_std *****************
  2848 ;; Defined at:
  2849 ;;		line 50 in file "can.c"
  2850 ;; Parameters:    Size  Location     Type
  2851 ;;		None
  2852 ;; Auto vars:     Size  Location     Type
  2853 ;;  id              2    6[COMRAM] unsigned short 
  2854 ;; Return value:  Size  Location     Type
  2855 ;;                  2    0[COMRAM] unsigned short 
  2856 ;; Registers used:
  2857 ;;		wreg, status,2, status,0
  2858 ;; Tracked objects:
  2859 ;;		On entry : 0/0
  2860 ;;		On exit  : 0/0
  2861 ;;		Unchanged: 0/0
  2862 ;; Data sizes:     COMRAM   BANK0   BANK1   BANK2   BANK3   BANK4   BANK5
  2863 ;;      Params:         2       0       0       0       0       0       0
  2864 ;;      Locals:         2       0       0       0       0       0       0
  2865 ;;      Temps:          4       0       0       0       0       0       0
  2866 ;;      Totals:         8       0       0       0       0       0       0
  2867 ;;Total ram usage:        8 bytes
  2868 ;; Hardware stack levels used: 1
  2869 ;; This function calls:
  2870 ;;		Nothing
  2871 ;; This function is called by:
  2872 ;;		_can_receive
  2873 ;; This function uses a non-reentrant model
  2874 ;;
  2875                           
  2876                           	psect	text8
  2877   002BE6                     __ptext8:
  2878                           	callstack 0
  2879   002BE6                     _get_msg_id_std:
  2880                           	callstack 28
  2881   002BE6                     
  2882                           ;can.c: 52:     id = ((RXB0SIDL >> 5) & 0x7) | (RXB0SIDH << 3);
  2883   002BE6  5061               	movf	97,w,c	;volatile
  2884   002BE8  6E03               	movwf	??_get_msg_id_std^0,c
  2885   002BEA  6A04               	clrf	(??_get_msg_id_std+1)^0,c
  2886   002BEC  90D8               	bcf	status,0,c
  2887   002BEE  3603               	rlcf	??_get_msg_id_std^0,f,c
  2888   002BF0  3604               	rlcf	(??_get_msg_id_std+1)^0,f,c
  2889   002BF2  90D8               	bcf	status,0,c
  2890   002BF4  3603               	rlcf	??_get_msg_id_std^0,f,c
  2891   002BF6  3604               	rlcf	(??_get_msg_id_std+1)^0,f,c
  2892   002BF8  90D8               	bcf	status,0,c
  2893   002BFA  3603               	rlcf	??_get_msg_id_std^0,f,c
  2894   002BFC  3604               	rlcf	(??_get_msg_id_std+1)^0,f,c
  2895   002BFE  3862               	swapf	98,w,c	;volatile
  2896   002C00  42E8               	rrncf	wreg,f,c
  2897   002C02  0B07               	andlw	7
  2898   002C04  0B07               	andlw	7
  2899   002C06  6E05               	movwf	(??_get_msg_id_std+2)^0,c
  2900   002C08  6A06               	clrf	(??_get_msg_id_std+3)^0,c
  2901   002C0A  5003               	movf	??_get_msg_id_std^0,w,c
  2902   002C0C  1005               	iorwf	(??_get_msg_id_std+2)^0,w,c
  2903   002C0E  6E07               	movwf	get_msg_id_std@id^0,c
  2904   002C10  5004               	movf	(??_get_msg_id_std+1)^0,w,c
  2905   002C12  1006               	iorwf	(??_get_msg_id_std+3)^0,w,c
  2906   002C14  6E08               	movwf	(get_msg_id_std@id+1)^0,c
  2907   002C16                     
  2908                           ;can.c: 53:     return id;
  2909   002C16  C007  F001         	movff	get_msg_id_std@id,?_get_msg_id_std
  2910   002C1A  C008  F002         	movff	get_msg_id_std@id+1,?_get_msg_id_std+1
  2911   002C1E  0012               	return		;funcret
  2912   002C20                     __end_of_get_msg_id_std:
  2913                           	callstack 0
  2914                           
  2915 ;; *************** function _init_config *****************
  2916 ;; Defined at:
  2917 ;;		line 14 in file "main.c"
  2918 ;; Parameters:    Size  Location     Type
  2919 ;;		None
  2920 ;; Auto vars:     Size  Location     Type
  2921 ;;		None
  2922 ;; Return value:  Size  Location     Type
  2923 ;;                  1    wreg      void 
  2924 ;; Registers used:
  2925 ;;		wreg, status,2, status,0, cstack
  2926 ;; Tracked objects:
  2927 ;;		On entry : 0/0
  2928 ;;		On exit  : 0/0
  2929 ;;		Unchanged: 0/0
  2930 ;; Data sizes:     COMRAM   BANK0   BANK1   BANK2   BANK3   BANK4   BANK5
  2931 ;;      Params:         0       0       0       0       0       0       0
  2932 ;;      Locals:         0       0       0       0       0       0       0
  2933 ;;      Temps:          0       0       0       0       0       0       0
  2934 ;;      Totals:         0       0       0       0       0       0       0
  2935 ;;Total ram usage:        0 bytes
  2936 ;; Hardware stack levels used: 1
  2937 ;; Hardware stack levels required when called: 2
  2938 ;; This function calls:
  2939 ;;		_init_can
  2940 ;;		_init_clcd
  2941 ;;		_init_leds
  2942 ;; This function is called by:
  2943 ;;		_main
  2944 ;; This function uses a non-reentrant model
  2945 ;;
  2946                           
  2947                           	psect	text9
  2948   002AF8                     __ptext9:
  2949                           	callstack 0
  2950   002AF8                     _init_config:
  2951                           	callstack 28
  2952   002AF8                     
  2953                           ;main.c: 17:     init_can();
  2954   002AF8  EC10  F016         	call	_init_can	;wreg free
  2955   002AFC                     
  2956                           ;main.c: 18:     init_leds();
  2957   002AFC  EC78  F015         	call	_init_leds	;wreg free
  2958   002B00                     
  2959                           ;main.c: 19:     init_clcd();
  2960   002B00  EC00  F017         	call	_init_clcd	;wreg free
  2961   002B04  0012               	return		;funcret
  2962   002B06                     __end_of_init_config:
  2963                           	callstack 0
  2964                           
  2965 ;; *************** function _init_leds *****************
  2966 ;; Defined at:
  2967 ;;		line 8 in file "main.c"
  2968 ;; Parameters:    Size  Location     Type
  2969 ;;		None
  2970 ;; Auto vars:     Size  Location     Type
  2971 ;;		None
  2972 ;; Return value:  Size  Location     Type
  2973 ;;                  2  121[None  ] int 
  2974 ;; Registers used:
  2975 ;;		wreg, status,2
  2976 ;; Tracked objects:
  2977 ;;		On entry : 0/0
  2978 ;;		On exit  : 0/0
  2979 ;;		Unchanged: 0/0
  2980 ;; Data sizes:     COMRAM   BANK0   BANK1   BANK2   BANK3   BANK4   BANK5
  2981 ;;      Params:         0       0       0       0       0       0       0
  2982 ;;      Locals:         0       0       0       0       0       0       0
  2983 ;;      Temps:          0       0       0       0       0       0       0
  2984 ;;      Totals:         0       0       0       0       0       0       0
  2985 ;;Total ram usage:        0 bytes
  2986 ;; Hardware stack levels used: 1
  2987 ;; This function calls:
  2988 ;;		Nothing
  2989 ;; This function is called by:
  2990 ;;		_init_config
  2991 ;; This function uses a non-reentrant model
  2992 ;;
  2993                           
  2994                           	psect	text10
  2995   002AF0                     __ptext10:
  2996                           	callstack 0
  2997   002AF0                     _init_leds:
  2998                           	callstack 29
  2999   002AF0                     
  3000                           ;main.c: 10:     TRISB = 0x08;
  3001   002AF0  0E08               	movlw	8
  3002   002AF2  6E93               	movwf	147,c	;volatile
  3003   002AF4                     
  3004                           ;main.c: 11:     PORTB = 0x00;
  3005   002AF4  6A81               	clrf	129,c	;volatile
  3006   002AF6  0012               	return		;funcret
  3007   002AF8                     __end_of_init_leds:
  3008                           	callstack 0
  3009                           
  3010 ;; *************** function _init_clcd *****************
  3011 ;; Defined at:
  3012 ;;		line 27 in file "clcd.c"
  3013 ;; Parameters:    Size  Location     Type
  3014 ;;		None
  3015 ;; Auto vars:     Size  Location     Type
  3016 ;;		None
  3017 ;; Return value:  Size  Location     Type
  3018 ;;                  1    wreg      void 
  3019 ;; Registers used:
  3020 ;;		wreg, status,2, status,0, cstack
  3021 ;; Tracked objects:
  3022 ;;		On entry : 0/0
  3023 ;;		On exit  : 0/0
  3024 ;;		Unchanged: 0/0
  3025 ;; Data sizes:     COMRAM   BANK0   BANK1   BANK2   BANK3   BANK4   BANK5
  3026 ;;      Params:         0       0       0       0       0       0       0
  3027 ;;      Locals:         0       0       0       0       0       0       0
  3028 ;;      Temps:          1       0       0       0       0       0       0
  3029 ;;      Totals:         1       0       0       0       0       0       0
  3030 ;;Total ram usage:        1 bytes
  3031 ;; Hardware stack levels used: 1
  3032 ;; Hardware stack levels required when called: 1
  3033 ;; This function calls:
  3034 ;;		_clcd_write
  3035 ;; This function is called by:
  3036 ;;		_init_config
  3037 ;; This function uses a non-reentrant model
  3038 ;;
  3039                           
  3040                           	psect	text11
  3041   002E00                     __ptext11:
  3042                           	callstack 0
  3043   002E00                     _init_clcd:
  3044                           	callstack 28
  3045   002E00                     
  3046                           ;clcd.c: 30:  TRISD = 0x00;
  3047   002E00  6A95               	clrf	149,c	;volatile
  3048   002E02                     
  3049                           ;clcd.c: 32:  TRISC = TRISC & 0xF8;
  3050   002E02  5094               	movf	148,w,c	;volatile
  3051   002E04  0BF8               	andlw	248
  3052   002E06  6E94               	movwf	148,c	;volatile
  3053   002E08                     
  3054                           ;clcd.c: 34:  RC0 = 0;
  3055   002E08  9082               	bcf	3970,0,c	;volatile
  3056   002E0A                     
  3057                           ;clcd.c: 38:     _delay((unsigned long)((30)*(20000000/4000.0)));
  3058   002E0A  0EC3               	movlw	195
  3059   002E0C  6E03               	movwf	??_init_clcd^0,c
  3060   002E0E  0ECD               	movlw	205
  3061   002E10                     u367:
  3062   002E10  2EE8               	decfsz	wreg,f,c
  3063   002E12  D7FE               	bra	u367
  3064   002E14  2E03               	decfsz	??_init_clcd^0,f,c
  3065   002E16  D7FC               	bra	u367
  3066   002E18  0000               	nop	
  3067   002E1A                     
  3068                           ;clcd.c: 41:     clcd_write(0x33, 0 );
  3069   002E1A  0E00               	movlw	0
  3070   002E1C  6E01               	movwf	clcd_write@control_bit^0,c
  3071   002E1E  0E33               	movlw	51
  3072   002E20  ECD6  F015         	call	_clcd_write
  3073   002E24                     
  3074                           ;clcd.c: 42:     _delay((unsigned long)((4100)*(20000000/4000000.0)));
  3075   002E24  0E1B               	movlw	27
  3076   002E26  6E03               	movwf	??_init_clcd^0,c
  3077   002E28  0E9E               	movlw	158
  3078   002E2A                     u377:
  3079   002E2A  2EE8               	decfsz	wreg,f,c
  3080   002E2C  D7FE               	bra	u377
  3081   002E2E  2E03               	decfsz	??_init_clcd^0,f,c
  3082   002E30  D7FC               	bra	u377
  3083   002E32  D000               	nop2	
  3084   002E34                     
  3085                           ;clcd.c: 43:     clcd_write(0x33, 0 );
  3086   002E34  0E00               	movlw	0
  3087   002E36  6E01               	movwf	clcd_write@control_bit^0,c
  3088   002E38  0E33               	movlw	51
  3089   002E3A  ECD6  F015         	call	_clcd_write
  3090   002E3E                     
  3091                           ;clcd.c: 44:     _delay((unsigned long)((100)*(20000000/4000000.0)));
  3092   002E3E  0EA6               	movlw	166
  3093   002E40                     u387:
  3094   002E40  2EE8               	decfsz	wreg,f,c
  3095   002E42  D7FE               	bra	u387
  3096   002E44  D000               	nop2	
  3097   002E46                     
  3098                           ;clcd.c: 45:     clcd_write(0x33, 0 );
  3099   002E46  0E00               	movlw	0
  3100   002E48  6E01               	movwf	clcd_write@control_bit^0,c
  3101   002E4A  0E33               	movlw	51
  3102   002E4C  ECD6  F015         	call	_clcd_write
  3103   002E50                     
  3104                           ;clcd.c: 46:     _delay((unsigned long)((1)*(20000000/4000000.0)));
  3105   002E50  D000               	nop2		;2 cycle nop
  3106   002E52  D000               	nop2		;2 cycle nop
  3107   002E54  0000               	nop	
  3108   002E56                     
  3109                           ;clcd.c: 48:     clcd_write(0x02, 0);
  3110   002E56  0E00               	movlw	0
  3111   002E58  6E01               	movwf	clcd_write@control_bit^0,c
  3112   002E5A  0E02               	movlw	2
  3113   002E5C  ECD6  F015         	call	_clcd_write
  3114   002E60                     
  3115                           ;clcd.c: 49:     _delay((unsigned long)((100)*(20000000/4000000.0)));
  3116   002E60  0EA6               	movlw	166
  3117   002E62                     u397:
  3118   002E62  2EE8               	decfsz	wreg,f,c
  3119   002E64  D7FE               	bra	u397
  3120   002E66  D000               	nop2	
  3121   002E68                     
  3122                           ;clcd.c: 50:     clcd_write(0x38, 0);
  3123   002E68  0E00               	movlw	0
  3124   002E6A  6E01               	movwf	clcd_write@control_bit^0,c
  3125   002E6C  0E38               	movlw	56
  3126   002E6E  ECD6  F015         	call	_clcd_write
  3127   002E72                     
  3128                           ;clcd.c: 51:     _delay((unsigned long)((100)*(20000000/4000000.0)));
  3129   002E72  0EA6               	movlw	166
  3130   002E74                     u407:
  3131   002E74  2EE8               	decfsz	wreg,f,c
  3132   002E76  D7FE               	bra	u407
  3133   002E78  D000               	nop2	
  3134   002E7A                     
  3135                           ;clcd.c: 52:     clcd_write(0x01, 0);
  3136   002E7A  0E00               	movlw	0
  3137   002E7C  6E01               	movwf	clcd_write@control_bit^0,c
  3138   002E7E  0E01               	movlw	1
  3139   002E80  ECD6  F015         	call	_clcd_write
  3140   002E84                     
  3141                           ;clcd.c: 53:     _delay((unsigned long)((500)*(20000000/4000000.0)));
  3142   002E84  0E04               	movlw	4
  3143   002E86  6E03               	movwf	??_init_clcd^0,c
  3144   002E88  0E3E               	movlw	62
  3145   002E8A                     u417:
  3146   002E8A  2EE8               	decfsz	wreg,f,c
  3147   002E8C  D7FE               	bra	u417
  3148   002E8E  2E03               	decfsz	??_init_clcd^0,f,c
  3149   002E90  D7FC               	bra	u417
  3150   002E92                     
  3151                           ;clcd.c: 54:     clcd_write(0x0C, 0);
  3152   002E92  0E00               	movlw	0
  3153   002E94  6E01               	movwf	clcd_write@control_bit^0,c
  3154   002E96  0E0C               	movlw	12
  3155   002E98  ECD6  F015         	call	_clcd_write
  3156   002E9C                     
  3157                           ;clcd.c: 55:     _delay((unsigned long)((100)*(20000000/4000000.0)));
  3158   002E9C  0EA6               	movlw	166
  3159   002E9E                     u427:
  3160   002E9E  2EE8               	decfsz	wreg,f,c
  3161   002EA0  D7FE               	bra	u427
  3162   002EA2  D000               	nop2	
  3163   002EA4  0012               	return		;funcret
  3164   002EA6                     __end_of_init_clcd:
  3165                           	callstack 0
  3166                           
  3167 ;; *************** function _clcd_write *****************
  3168 ;; Defined at:
  3169 ;;		line 4 in file "clcd.c"
  3170 ;; Parameters:    Size  Location     Type
  3171 ;;  byte            1    wreg     unsigned char 
  3172 ;;  control_bit     1    0[COMRAM] unsigned char 
  3173 ;; Auto vars:     Size  Location     Type
  3174 ;;  byte            1    1[COMRAM] unsigned char 
  3175 ;; Return value:  Size  Location     Type
  3176 ;;                  1    wreg      void 
  3177 ;; Registers used:
  3178 ;;		wreg
  3179 ;; Tracked objects:
  3180 ;;		On entry : 0/0
  3181 ;;		On exit  : 0/0
  3182 ;;		Unchanged: 0/0
  3183 ;; Data sizes:     COMRAM   BANK0   BANK1   BANK2   BANK3   BANK4   BANK5
  3184 ;;      Params:         1       0       0       0       0       0       0
  3185 ;;      Locals:         1       0       0       0       0       0       0
  3186 ;;      Temps:          0       0       0       0       0       0       0
  3187 ;;      Totals:         2       0       0       0       0       0       0
  3188 ;;Total ram usage:        2 bytes
  3189 ;; Hardware stack levels used: 1
  3190 ;; This function calls:
  3191 ;;		Nothing
  3192 ;; This function is called by:
  3193 ;;		_init_clcd
  3194 ;;		_clcd_print
  3195 ;;		_handle_indicator_data
  3196 ;;		_clcd_putch
  3197 ;; This function uses a non-reentrant model
  3198 ;;
  3199                           
  3200                           	psect	text12
  3201   002BAC                     __ptext12:
  3202                           	callstack 0
  3203   002BAC                     _clcd_write:
  3204                           	callstack 27
  3205                           
  3206                           ;incstack = 0
  3207                           ;clcd_write@byte stored from wreg
  3208   002BAC  6E02               	movwf	clcd_write@byte^0,c
  3209   002BAE                     
  3210                           ;clcd.c: 4: void clcd_write(unsigned char byte, unsigned char control_bit);clcd.c: 5: {;
      +                          clcd.c: 6:  RC1 = control_bit;
  3211   002BAE  B001               	btfsc	clcd_write@control_bit^0,0,c
  3212   002BB0  EFDC  F015         	goto	u201
  3213   002BB4  EFDF  F015         	goto	u200
  3214   002BB8                     u201:
  3215   002BB8  8282               	bsf	3970,1,c	;volatile
  3216   002BBA  EFE0  F015         	goto	u215
  3217   002BBE                     u200:
  3218   002BBE  9282               	bcf	3970,1,c	;volatile
  3219   002BC0                     u215:
  3220   002BC0                     
  3221                           ;clcd.c: 7:  PORTD = byte;
  3222   002BC0  C002  FF83         	movff	clcd_write@byte,3971	;volatile
  3223   002BC4                     
  3224                           ;clcd.c: 10:  RC2 = 1;
  3225   002BC4  8482               	bsf	3970,2,c	;volatile
  3226   002BC6                     
  3227                           ;clcd.c: 11:  RC2 = 0;
  3228   002BC6  9482               	bcf	3970,2,c	;volatile
  3229   002BC8                     
  3230                           ;clcd.c: 13:  TRISD7 = 0xFF;
  3231   002BC8  8E95               	bsf	3989,7,c	;volatile
  3232   002BCA                     
  3233                           ;clcd.c: 14:  RC0 = 1;
  3234   002BCA  8082               	bsf	3970,0,c	;volatile
  3235   002BCC                     
  3236                           ;clcd.c: 15:  RC1 = 0;
  3237   002BCC  9282               	bcf	3970,1,c	;volatile
  3238   002BCE                     l1101:
  3239                           
  3240                           ;clcd.c: 18:  {;clcd.c: 19:   RC2 = 1;
  3241   002BCE  8482               	bsf	3970,2,c	;volatile
  3242   002BD0                     
  3243                           ;clcd.c: 20:   RC2 = 0;
  3244   002BD0  9482               	bcf	3970,2,c	;volatile
  3245   002BD2                     
  3246                           ;clcd.c: 21:  } while (RD7);
  3247   002BD2  BE83               	btfsc	3971,7,c	;volatile
  3248   002BD4  EFEE  F015         	goto	u221
  3249   002BD8  EFF0  F015         	goto	u220
  3250   002BDC                     u221:
  3251   002BDC  EFE7  F015         	goto	l1101
  3252   002BE0                     u220:
  3253   002BE0                     
  3254                           ;clcd.c: 23:  RC0 = 0;
  3255   002BE0  9082               	bcf	3970,0,c	;volatile
  3256                           
  3257                           ;clcd.c: 24:  TRISD7 = 0x00;
  3258   002BE2  9E95               	bcf	3989,7,c	;volatile
  3259   002BE4  0012               	return		;funcret
  3260   002BE6                     __end_of_clcd_write:
  3261                           	callstack 0
  3262                           
  3263 ;; *************** function _init_can *****************
  3264 ;; Defined at:
  3265 ;;		line 15 in file "can.c"
  3266 ;; Parameters:    Size  Location     Type
  3267 ;;		None
  3268 ;; Auto vars:     Size  Location     Type
  3269 ;;		None
  3270 ;; Return value:  Size  Location     Type
  3271 ;;                  1    wreg      void 
  3272 ;; Registers used:
  3273 ;;		wreg, status,2, status,0
  3274 ;; Tracked objects:
  3275 ;;		On entry : 0/0
  3276 ;;		On exit  : 0/0
  3277 ;;		Unchanged: 0/0
  3278 ;; Data sizes:     COMRAM   BANK0   BANK1   BANK2   BANK3   BANK4   BANK5
  3279 ;;      Params:         0       0       0       0       0       0       0
  3280 ;;      Locals:         0       0       0       0       0       0       0
  3281 ;;      Temps:          0       0       0       0       0       0       0
  3282 ;;      Totals:         0       0       0       0       0       0       0
  3283 ;;Total ram usage:        0 bytes
  3284 ;; Hardware stack levels used: 1
  3285 ;; This function calls:
  3286 ;;		Nothing
  3287 ;; This function is called by:
  3288 ;;		_init_config
  3289 ;; This function uses a non-reentrant model
  3290 ;;
  3291                           
  3292                           	psect	text13
  3293   002C20                     __ptext13:
  3294                           	callstack 0
  3295   002C20                     _init_can:
  3296                           	callstack 29
  3297   002C20                     
  3298                           ;can.c: 17:     TRISB2 = 0;
  3299   002C20  9493               	bcf	3987,2,c	;volatile
  3300                           
  3301                           ;can.c: 18:     TRISB3 = 1;
  3302   002C22  8693               	bsf	3987,3,c	;volatile
  3303   002C24                     
  3304                           ;can.c: 22:     { CANCON &= 0x1F; CANCON |= e_can_op_mode_config; };
  3305   002C24  0E1F               	movlw	31
  3306   002C26  166F               	andwf	111,f,c	;volatile
  3307   002C28  8E6F               	bsf	111,7,c	;volatile
  3308   002C2A                     l937:
  3309   002C2A  0E80               	movlw	128
  3310   002C2C  186E               	xorwf	110,w,c	;volatile
  3311   002C2E  A4D8               	btfss	status,2,c
  3312   002C30  EF1C  F016         	goto	u71
  3313   002C34  EF1E  F016         	goto	u70
  3314   002C38                     u71:
  3315   002C38  EF15  F016         	goto	l937
  3316   002C3C                     u70:
  3317   002C3C                     
  3318                           ;can.c: 28:     ECANCON = 0x00;
  3319   002C3C  6A77               	clrf	119,c	;volatile
  3320   002C3E                     
  3321                           ;can.c: 31:     BRGCON1 = 0xE1;
  3322   002C3E  0EE1               	movlw	225
  3323   002C40  6E70               	movwf	112,c	;volatile
  3324                           
  3325                           ;can.c: 32:     BRGCON2 = 0x1B;
  3326   002C42  0E1B               	movlw	27
  3327   002C44  6E71               	movwf	113,c	;volatile
  3328                           
  3329                           ;can.c: 33:     BRGCON3 = 0x03;
  3330   002C46  0E03               	movlw	3
  3331   002C48  6E72               	movwf	114,c	;volatile
  3332   002C4A                     
  3333                           ;can.c: 39:     RXFCON0 = 0x00;
  3334   002C4A  010D               	movlb	13	; () banked
  3335   002C4C  6BD4               	clrf	212,b	;volatile
  3336   002C4E                     
  3337                           ; BSR set to: 13
  3338                           ;can.c: 41:     { CANCON &= 0x1F; CANCON |= e_can_op_mode_normal; };
  3339   002C4E  0E1F               	movlw	31
  3340   002C50  166F               	andwf	111,f,c	;volatile
  3341   002C52                     
  3342                           ; BSR set to: 13
  3343   002C52  506F               	movf	111,w,c	;volatile
  3344   002C54                     
  3345                           ; BSR set to: 13
  3346                           ;can.c: 44:     RXB0CON = 0x00;
  3347   002C54  6A60               	clrf	96,c	;volatile
  3348   002C56                     
  3349                           ; BSR set to: 13
  3350                           ;can.c: 46:     RXB0CONbits.RXM0 = 1;
  3351   002C56  8A60               	bsf	96,5,c	;volatile
  3352   002C58                     
  3353                           ; BSR set to: 13
  3354                           ;can.c: 47:     RXB0CONbits.RXM1 = 1;
  3355   002C58  8C60               	bsf	96,6,c	;volatile
  3356   002C5A                     
  3357                           ; BSR set to: 13
  3358   002C5A  0012               	return		;funcret
  3359   002C5C                     __end_of_init_can:
  3360                           	callstack 0
  3361                           
  3362                           	psect	rparam
  3363   000001                     ___rparam_used  equ	1
  3364   000000                     ___param_bank   equ	0
  3365   000000                     __Lparam        equ	__Lrparam
  3366   000000                     __Hparam        equ	__Hrparam
  3367                           
  3368                           	psect	idloc
  3369                           
  3370                           ;Config register IDLOC0 @ 0x200000
  3371                           ;	unspecified, using default values
  3372   200000                     	org	2097152
  3373   200000  FF                 	db	255
  3374                           
  3375                           ;Config register IDLOC1 @ 0x200001
  3376                           ;	unspecified, using default values
  3377   200001                     	org	2097153
  3378   200001  FF                 	db	255
  3379                           
  3380                           ;Config register IDLOC2 @ 0x200002
  3381                           ;	unspecified, using default values
  3382   200002                     	org	2097154
  3383   200002  FF                 	db	255
  3384                           
  3385                           ;Config register IDLOC3 @ 0x200003
  3386                           ;	unspecified, using default values
  3387   200003                     	org	2097155
  3388   200003  FF                 	db	255
  3389                           
  3390                           ;Config register IDLOC4 @ 0x200004
  3391                           ;	unspecified, using default values
  3392   200004                     	org	2097156
  3393   200004  FF                 	db	255
  3394                           
  3395                           ;Config register IDLOC5 @ 0x200005
  3396                           ;	unspecified, using default values
  3397   200005                     	org	2097157
  3398   200005  FF                 	db	255
  3399                           
  3400                           ;Config register IDLOC6 @ 0x200006
  3401                           ;	unspecified, using default values
  3402   200006                     	org	2097158
  3403   200006  FF                 	db	255
  3404                           
  3405                           ;Config register IDLOC7 @ 0x200007
  3406                           ;	unspecified, using default values
  3407   200007                     	org	2097159
  3408   200007  FF                 	db	255
  3409                           
  3410                           	psect	config
  3411                           
  3412                           ; Padding undefined space
  3413   300000                     	org	3145728
  3414   300000  FF                 	db	255
  3415                           
  3416                           ;Config register CONFIG1H @ 0x300001
  3417                           ;	unspecified, using default values
  3418                           ;	Oscillator Selection bits
  3419                           ;	OSC = 0x7, unprogrammed default
  3420                           ;	Fail-Safe Clock Monitor Enable bit
  3421                           ;	FCMEN = 0x0, unprogrammed default
  3422                           ;	Internal/External Oscillator Switchover bit
  3423                           ;	IESO = 0x0, unprogrammed default
  3424   300001                     	org	3145729
  3425   300001  07                 	db	7
  3426                           
  3427                           ;Config register CONFIG2L @ 0x300002
  3428                           ;	unspecified, using default values
  3429                           ;	Power-up Timer Enable bit
  3430                           ;	PWRT = 0x1, unprogrammed default
  3431                           ;	Brown-out Reset Enable bits
  3432                           ;	BOREN = 0x3, unprogrammed default
  3433                           ;	Brown-out Reset Voltage bits
  3434                           ;	BORV = 0x3, unprogrammed default
  3435   300002                     	org	3145730
  3436   300002  1F                 	db	31
  3437                           
  3438                           ;Config register CONFIG2H @ 0x300003
  3439                           ;	unspecified, using default values
  3440                           ;	Watchdog Timer Enable bit
  3441                           ;	WDT = 0x1, unprogrammed default
  3442                           ;	Watchdog Timer Postscale Select bits
  3443                           ;	WDTPS = 0xF, unprogrammed default
  3444   300003                     	org	3145731
  3445   300003  1F                 	db	31
  3446                           
  3447                           ; Padding undefined space
  3448   300004                     	org	3145732
  3449   300004  FF                 	db	255
  3450                           
  3451                           ;Config register CONFIG3H @ 0x300005
  3452                           ;	unspecified, using default values
  3453                           ;	PORTB A/D Enable bit
  3454                           ;	PBADEN = 0x1, unprogrammed default
  3455                           ;	Low-Power Timer 1 Oscillator Enable bit
  3456                           ;	LPT1OSC = 0x0, unprogrammed default
  3457                           ;	MCLR Pin Enable bit
  3458                           ;	MCLRE = 0x1, unprogrammed default
  3459   300005                     	org	3145733
  3460   300005  82                 	db	130
  3461                           
  3462                           ;Config register CONFIG4L @ 0x300006
  3463                           ;	unspecified, using default values
  3464                           ;	Stack Full/Underflow Reset Enable bit
  3465                           ;	STVREN = 0x1, unprogrammed default
  3466                           ;	Single-Supply ICSP Enable bit
  3467                           ;	LVP = 0x1, unprogrammed default
  3468                           ;	Boot Block Size Select bit
  3469                           ;	BBSIZ = 0x0, unprogrammed default
  3470                           ;	Extended Instruction Set Enable bit
  3471                           ;	XINST = 0x0, unprogrammed default
  3472                           ;	Background Debugger Enable bit
  3473                           ;	DEBUG = 0x1, unprogrammed default
  3474   300006                     	org	3145734
  3475   300006  85                 	db	133
  3476                           
  3477                           ; Padding undefined space
  3478   300007                     	org	3145735
  3479   300007  FF                 	db	255
  3480                           
  3481                           ;Config register CONFIG5L @ 0x300008
  3482                           ;	unspecified, using default values
  3483                           ;	Code Protection bit
  3484                           ;	CP0 = 0x1, unprogrammed default
  3485                           ;	Code Protection bit
  3486                           ;	CP1 = 0x1, unprogrammed default
  3487                           ;	Code Protection bit
  3488                           ;	CP2 = 0x1, unprogrammed default
  3489                           ;	Code Protection bit
  3490                           ;	CP3 = 0x1, unprogrammed default
  3491   300008                     	org	3145736
  3492   300008  0F                 	db	15
  3493                           
  3494                           ;Config register CONFIG5H @ 0x300009
  3495                           ;	unspecified, using default values
  3496                           ;	Boot Block Code Protection bit
  3497                           ;	CPB = 0x1, unprogrammed default
  3498                           ;	Data EEPROM Code Protection bit
  3499                           ;	CPD = 0x1, unprogrammed default
  3500   300009                     	org	3145737
  3501   300009  C0                 	db	192
  3502                           
  3503                           ;Config register CONFIG6L @ 0x30000A
  3504                           ;	unspecified, using default values
  3505                           ;	Write Protection bit
  3506                           ;	WRT0 = 0x1, unprogrammed default
  3507                           ;	Write Protection bit
  3508                           ;	WRT1 = 0x1, unprogrammed default
  3509                           ;	Write Protection bit
  3510                           ;	WRT2 = 0x1, unprogrammed default
  3511                           ;	Write Protection bit
  3512                           ;	WRT3 = 0x1, unprogrammed default
  3513   30000A                     	org	3145738
  3514   30000A  0F                 	db	15
  3515                           
  3516                           ;Config register CONFIG6H @ 0x30000B
  3517                           ;	unspecified, using default values
  3518                           ;	Configuration Register Write Protection bit
  3519                           ;	WRTC = 0x1, unprogrammed default
  3520                           ;	Boot Block Write Protection bit
  3521                           ;	WRTB = 0x1, unprogrammed default
  3522                           ;	Data EEPROM Write Protection bit
  3523                           ;	WRTD = 0x1, unprogrammed default
  3524   30000B                     	org	3145739
  3525   30000B  E0                 	db	224
  3526                           
  3527                           ;Config register CONFIG7L @ 0x30000C
  3528                           ;	unspecified, using default values
  3529                           ;	Table Read Protection bit
  3530                           ;	EBTR0 = 0x1, unprogrammed default
  3531                           ;	Table Read Protection bit
  3532                           ;	EBTR1 = 0x1, unprogrammed default
  3533                           ;	Table Read Protection bit
  3534                           ;	EBTR2 = 0x1, unprogrammed default
  3535                           ;	Table Read Protection bit
  3536                           ;	EBTR3 = 0x1, unprogrammed default
  3537   30000C                     	org	3145740
  3538   30000C  0F                 	db	15
  3539                           
  3540                           ;Config register CONFIG7H @ 0x30000D
  3541                           ;	unspecified, using default values
  3542                           ;	Boot Block Table Read Protection bit
  3543                           ;	EBTRB = 0x1, unprogrammed default
  3544   30000D                     	org	3145741
  3545   30000D  40                 	db	64
  3546                           tosu	equ	0xFFF
  3547                           tosh	equ	0xFFE
  3548                           tosl	equ	0xFFD
  3549                           stkptr	equ	0xFFC
  3550                           pclatu	equ	0xFFB
  3551                           pclath	equ	0xFFA
  3552                           pcl	equ	0xFF9
  3553                           tblptru	equ	0xFF8
  3554                           tblptrh	equ	0xFF7
  3555                           tblptrl	equ	0xFF6
  3556                           tablat	equ	0xFF5
  3557                           prodh	equ	0xFF4
  3558                           prodl	equ	0xFF3
  3559                           indf0	equ	0xFEF
  3560                           postinc0	equ	0xFEE
  3561                           postdec0	equ	0xFED
  3562                           preinc0	equ	0xFEC
  3563                           plusw0	equ	0xFEB
  3564                           fsr0h	equ	0xFEA
  3565                           fsr0l	equ	0xFE9
  3566                           wreg	equ	0xFE8
  3567                           indf1	equ	0xFE7
  3568                           postinc1	equ	0xFE6
  3569                           postdec1	equ	0xFE5
  3570                           preinc1	equ	0xFE4
  3571                           plusw1	equ	0xFE3
  3572                           fsr1h	equ	0xFE2
  3573                           fsr1l	equ	0xFE1
  3574                           bsr	equ	0xFE0
  3575                           indf2	equ	0xFDF
  3576                           postinc2	equ	0xFDE
  3577                           postdec2	equ	0xFDD
  3578                           preinc2	equ	0xFDC
  3579                           plusw2	equ	0xFDB
  3580                           fsr2h	equ	0xFDA
  3581                           fsr2l	equ	0xFD9
  3582                           status	equ	0xFD8

Data Sizes:
    Strings     33
    Constant    0
    Data        0
    BSS         4
    Persistent  0
    Stack       0

Auto Spaces:
    Space          Size  Autos    Used
    COMRAM           95     31      35
    BANK0           160      0       0
    BANK1           256      0       0
    BANK2           256      0       0
    BANK3           256      0       0
    BANK4           256      0       0
    BANK5           256      0       0

Pointer List with Targets:

    can_receive@data	PTR unsigned char  size(1) Largest target is 10
		 -> process_canbus_data@data(COMRAM[10]), 

    can_receive@len	PTR unsigned char  size(1) Largest target is 1
		 -> process_canbus_data@len(COMRAM[1]), 

    can_receive@msg_id	PTR unsigned short  size(1) Largest target is 2
		 -> process_canbus_data@msg_id(COMRAM[2]), 

    can_receive@ptr	PTR unsigned char  size(2) Largest target is 1
		 -> RXB0D0(SFR_3[1]), 

    clcd_print@data	PTR const unsigned char  size(2) Largest target is 10
		 -> process_canbus_data@data(COMRAM[10]), STR_1(CODE[5]), STR_2(CODE[6]), STR_3(CODE[5]), 
		 -> STR_4(CODE[5]), STR_5(CODE[4]), STR_6(CODE[4]), STR_7(CODE[4]), 

    handle_gear_data@data	PTR unsigned char  size(1) Largest target is 10
		 -> process_canbus_data@data(COMRAM[10]), 

    handle_indicator_data@data	PTR unsigned char  size(1) Largest target is 10
		 -> process_canbus_data@data(COMRAM[10]), 

    handle_rpm_data@data	PTR unsigned char  size(1) Largest target is 10
		 -> process_canbus_data@data(COMRAM[10]), 

    handle_speed_data@data	PTR unsigned char  size(1) Largest target is 10
		 -> process_canbus_data@data(COMRAM[10]), 


Critical Paths under _main in COMRAM

    _main->_process_canbus_data
    _process_canbus_data->_can_receive
    _handle_speed_data->_clcd_print
    _handle_rpm_data->_clcd_print
    _handle_indicator_data->_clcd_print
    _handle_gear_data->_clcd_print
    _clcd_print->_clcd_write
    _can_receive->_get_msg_id_std
    _init_config->_init_clcd
    _init_clcd->_clcd_write

Critical Paths under _main in BANK0

    None.

Critical Paths under _main in BANK1

    None.

Critical Paths under _main in BANK2

    None.

Critical Paths under _main in BANK3

    None.

Critical Paths under _main in BANK4

    None.

Critical Paths under _main in BANK5

    None.

Call Graph Tables:

 ---------------------------------------------------------------------------------
 (Depth) Function   	        Calls       Base Space   Used Autos Params    Refs
 ---------------------------------------------------------------------------------
 (0) _main                                                 0     0      0    1471
                        _init_config
                _process_canbus_data
 ---------------------------------------------------------------------------------
 (1) _process_canbus_data                                 13    13      0    1407
                                             18 COMRAM    13    13      0
                        _can_receive
                   _handle_gear_data
              _handle_indicator_data
                    _handle_rpm_data
                  _handle_speed_data
 ---------------------------------------------------------------------------------
 (2) _handle_speed_data                                    2     0      2     197
                                              5 COMRAM     2     0      2
                         _clcd_print
 ---------------------------------------------------------------------------------
 (2) _handle_rpm_data                                      2     0      2     197
                                              5 COMRAM     2     0      2
                         _clcd_print
 ---------------------------------------------------------------------------------
 (2) _handle_indicator_data                                2     0      2     239
                                              5 COMRAM     2     0      2
                         _clcd_print
                         _clcd_write
 ---------------------------------------------------------------------------------
 (2) _handle_gear_data                                     2     0      2     197
                                              5 COMRAM     2     0      2
                         _clcd_print
 ---------------------------------------------------------------------------------
 (3) _clcd_print                                           3     0      3     151
                                              2 COMRAM     3     0      3
                         _clcd_write
 ---------------------------------------------------------------------------------
 (2) _can_receive                                         10     7      3     228
                                              8 COMRAM    10     7      3
                     _get_msg_id_std
 ---------------------------------------------------------------------------------
 (3) _get_msg_id_std                                       8     6      2      24
                                              0 COMRAM     8     6      2
 ---------------------------------------------------------------------------------
 (1) _init_config                                          0     0      0      64
                           _init_can
                          _init_clcd
                          _init_leds
 ---------------------------------------------------------------------------------
 (2) _init_leds                                            0     0      0       0
 ---------------------------------------------------------------------------------
 (2) _init_clcd                                            1     1      0      64
                                              2 COMRAM     1     1      0
                         _clcd_write
 ---------------------------------------------------------------------------------
 (4) _clcd_write                                           2     1      1      64
                                              0 COMRAM     2     1      1
 ---------------------------------------------------------------------------------
 (2) _init_can                                             0     0      0       0
 ---------------------------------------------------------------------------------
 Estimated maximum stack depth 4
 ---------------------------------------------------------------------------------

 Call Graph Graphs:

 _main (ROOT)
   _init_config
     _init_can
     _init_clcd
       _clcd_write
     _init_leds
   _process_canbus_data
     _can_receive
       _get_msg_id_std
     _handle_gear_data
       _clcd_print
         _clcd_write
     _handle_indicator_data
       _clcd_print
       _clcd_write
     _handle_rpm_data
       _clcd_print
     _handle_speed_data
       _clcd_print

Address spaces:
Name               Size   Autos  Total    Usage
BIGRAM            1535      0       0      0.0%
BITBIGSFRlh        410      0       0      0.0%
BITBANK5           256      0       0      0.0%
BANK5              256      0       0      0.0%
BITBANK4           256      0       0      0.0%
BANK4              256      0       0      0.0%
BITBANK3           256      0       0      0.0%
BANK3              256      0       0      0.0%
BITBANK2           256      0       0      0.0%
BANK2              256      0       0      0.0%
BITBANK1           256      0       0      0.0%
BANK1              256      0       0      0.0%
BITBIGSFRll        212      0       0      0.0%
BITBANK0           160      0       0      0.0%
BANK0              160      0       0      0.0%
BITBIGSFRh         144      0       0      0.0%
BITCOMRAM           95      0       0      0.0%
COMRAM              95     31      35     36.8%
STACK                0      0       0      0.0%
DATA                 0      0      35      0.0%


Microchip Technology PIC18 Macro Assembler V3.00 build 20241204225717 
Symbol Table                                                                                   Mon Sep 22 22:55:21 2025

               clcd_print@addr 0005                 clcd_print@data 0003                             l22 2BE0  
                           l23 2BE4                             l32 2CC6                             l26 2EA4  
                           l92 2C1E                             l88 2C3C                             l89 2C5A  
                           u70 2C3C                             u71 2C38                ?_get_msg_id_std 0001  
                          l122 2AF6                            l107 2D4C                            l125 2B04  
                          l109 2D5C                            l151 2B52                            l154 2B7E  
                          l148 2BAA                            l173 2FD6                            l183 2DFE  
                          l179 2DFE                            l931 2C20                            l941 2C4A  
                          l933 2C24                            l951 2C58                            l943 2C4E  
                          l935 2C28                            l945 2C52                            l937 2C2A  
                          l947 2C54                            l939 2C3E                            l971 2AF0  
                          l949 2C56                            l973 2AF4                            _RC0 7C10  
                          _RC1 7C11                            _RC2 7C12                            _RD7 7C1F  
                          u200 2BBE                            u201 2BB8                            u220 2BE0  
                          u300 2F40                            u221 2BDC                            u301 2F3C  
                          u230 2C8E                            u310 2F76                            u215 2BC0  
                          u311 2F72                            u240 2CB6                            u320 2D82  
                          u321 2D7E                            u250 2CC6                            u330 2DA6  
                          u251 2CC2                            u331 2DA2                            u260 2CD6  
                          u340 2DCA                            u261 2CD2                            u237 2C84  
                          u341 2DC6                            u270 2D4C                            u350 2DEE  
                          u407 2E74                            u271 2D48                            u247 2CAC  
                          u351 2DEA                            u280 2ED0                            u417 2E8A  
                          u281 2ECC                            u290 2F06                            u427 2E9E  
                          u291 2F02                            u367 2E10                            u377 2E2A  
                          u387 2E40                            u397 2E62          ??_process_canbus_data 0013  
            can_receive@msg_id 0009                            wreg 0FE8                           l1101 2BCE  
                         l1103 2BD0                           l1111 2C92                           l1105 2BD2  
                         l1113 2C96                           l1201 2EDC                           l1131 2E1A  
                         l1123 2E00                           l1115 2BE6                           l1107 2C5C  
                         l1211 2F22                           l1203 2EF0                           l1141 2E50  
                         l1133 2E24                           l1125 2E02                           l1117 2BE6  
                         l1109 2C6A                           l1221 2F76                           l1213 2F2A  
                         l1205 2F06                           l1151 2E7A                           l1143 2E56  
                         l1135 2E34                           l1127 2E08                           l1119 2C16  
                         l1231 2F9A                           l1223 2F7C                           l1215 2F40  
                         l1207 2F0C                           l1153 2E84                           l1145 2E60  
                         l1137 2E3E                           l1129 2E0A                           l1241 2AF8  
                         l1161 2CD6                           l1233 2FA0                           l1217 2F4C  
                         l1209 2F1A                           l1091 2BC4                           l1155 2E92  
                         l1147 2E68                           l1139 2E46                           l1243 2AFC  
                         l1171 2D1E                           l1163 2CE8                           l1235 2FA6  
                         l1219 2F60                           l1251 2D82                           l1093 2BC6  
                         l1157 2E9C                           l1149 2E72                           l1245 2B00  
                         l1173 2D22                           l1165 2CF2                           l1229 2F8A  
                         l1181 2B9C                           l1261 2DDA                           l1253 2D92  
                         l1095 2BC8                           l1087 2BAE                           l1167 2CFA  
                         l1175 2D54                           l1159 2CC8                           l1183 2B28  
                         l1239 2FB2                           l1191 2B64                           l1263 2DEE  
                         l1255 2DA6                           l1247 2D5E                           l1097 2BCA  
                         l1089 2BC0                           l1169 2D06                           l1185 2B38  
                         l1193 2B70                           l1177 2B80                           l1257 2DB6  
                         l1249 2D6E                           l1099 2BCC                           l1187 2B44  
                         l1195 2EA6                           l1179 2B90                           l1259 2DCA  
                         l1267 2B06                           l1197 2EBA                           l1189 2B54  
                         l1269 2B0A                           l1199 2ED0                           STR_1 2FE4  
                         STR_2 2FD9                           STR_3 2FE9                           STR_4 2FDF  
                         STR_5 2FF2                           STR_6 2FEE                           STR_7 2FF6  
                         _main 2B06                           fsr0h 0FEA                           fsr1h 0FE2  
                         indf0 0FEF                           fsr2h 0FDA                           fsr0l 0FE9  
                         indf1 0FE7                           indf2 0FDF                           fsr1l 0FE1  
                         fsr2l 0FD9             handle_rpm_data@len 0007                           start 2FFC  
                 ___param_bank 0000                 clcd_write@byte 0002                          ?_main 0001  
                 ?_init_config 0001                          _PORTB 0F81                          _PORTD 0F83  
                        _TRISB 0F93                          _TRISC 0F94                          _TRISD 0F95  
          handle_rpm_data@data 0006                          tablat 0FF5                          status 0FD8  
              __initialization 2B16                   __end_of_main 2B16                _handle_rpm_data 2B54  
       process_canbus_data@len 001F                         ??_main 0020                  __activetblptr 0002  
         handle_speed_data@len 0007                         _CANCON 0F6F       handle_indicator_data@len 0007  
                       _RXB0D0 0F66                         _RXB0IF 7D20                         _TXB0D0 0F46  
                       _TRISB2 7C9A                         _TRISB3 7C9B                         _TRISD7 7CAF  
        _handle_indicator_data 2EA6               __end_of_init_can 2C5C                         isa$std 0001  
                       _status 0022               _handle_gear_data 2B28                   __mediumconst 2FD8  
                       tblptrh 0FF7                         tblptrl 0FF6                         tblptru 0FF8  
                   __accesstop 0060        __end_of__initialization 2B1E                 can_receive@len 000B  
               can_receive@ptr 000F                  ___rparam_used 0001               ??_get_msg_id_std 0003  
      __end_of_handle_rpm_data 2B80                 __pcstackCOMRAM 0001               get_msg_id_std@id 0007  
      process_canbus_data@data 0013         ?_handle_indicator_data 0006                     _clcd_print 2C5C  
                   _clcd_write 2BAC          handle_speed_data@data 0006    __end_of_process_canbus_data 2E00  
                      _ECANCON 0F77                        _CANSTAT 0F6E                        _BRGCON1 0F70  
                      _BRGCON2 0F71                        _BRGCON3 0F72                        _RXB0DLC 0F65  
                      _RXB0CON 0F60                        _RXB0FUL 7B07                        _TXB0DLC 0F45  
                      _TXB0REQ 7A03                        _RXFCON0 0DD4                      ?_init_can 0001  
                      __Hparam 0000                        __Lparam 0000               ?_handle_rpm_data 0006  
                ??_can_receive 000C                        __pcinit 2B16                        __ramtop 0600  
                      __ptext0 2B06                        __ptext1 2D5E                        __ptext2 2B80  
                      __ptext3 2B54                        __ptext4 2EA6                        __ptext5 2B28  
                      __ptext6 2C5C                        __ptext7 2CC8                        __ptext8 2BE6  
                      __ptext9 2AF8              __end_of_init_clcd 2EA6              __end_of_init_leds 2AF8  
         end_of_initialization 2B1E                     ??_init_can 0001                  __Lmediumconst 2FD8  
                  ?_clcd_print 0003                    ?_clcd_write 0001       __end_of_handle_gear_data 2B54  
   handle_indicator_data@delay 0020                        postdec2 0FDD                        postinc2 0FDE  
          __end_of_can_receive 2D5E                can_receive@data 000A            start_initialization 2B16  
                 can_receive@i 0011        ??_handle_indicator_data 0008              _handle_speed_data 2B80  
                  _can_receive 2CC8             ?_handle_speed_data 0006                  ??_init_config 0004  
          ??_handle_speed_data 0008                    __pbssCOMRAM 0020      __end_of_handle_speed_data 2BAC  
                __pmediumconst 2FD8                      _led_state 0023                    __smallconst 2FD8  
                    _init_clcd 2E00                      _init_leds 2AF0            __end_of_init_config 2B06  
                 ??_clcd_print 0006                   ??_clcd_write 0002              ?_handle_gear_data 0006  
                     _RXB0SIDH 0F61                       _RXB0SIDL 0F62                       _TXB0EIDH 0F43  
                     _TXB0EIDL 0F44             ??_handle_gear_data 0008                       _TXB0SIDH 0F41  
                     _TXB0SIDL 0F42          clcd_write@control_bit 0001             __end_of_clcd_print 2CC8  
           __end_of_clcd_write 2BE6                     ?_init_clcd 0001                     ?_init_leds 0001  
                     __Hrparam 0000                       __Lrparam 0000      process_canbus_data@msg_id 001D  
                  _init_config 2AF8                       __ptext10 2AF0                       __ptext11 2E00  
                     __ptext12 2BAC                       __ptext13 2C20  __end_of_handle_indicator_data 2FD8  
                     _init_can 2C20           handle_gear_data@data 0006                       isa$xinst 0000  
                 ?_can_receive 0009                 _get_msg_id_std 2BE6                    _RXB0CONbits 0F60  
                  ??_init_clcd 0003                    ??_init_leds 0001              ??_handle_rpm_data 0008  
          _process_canbus_data 2D5E            handle_gear_data@len 0007      handle_indicator_data@data 0006  
       __end_of_get_msg_id_std 2C20           ?_process_canbus_data 0001  
